
Optional file vector_offset_init.o not found
Archive member included to satisfy reference by file (symbol)

f:/microchip/xc32/v4.35/bin/bin/../../lib/gcc/pic32mx/8.3.1/fpu64\libgcc.a(_divdi3.o)
                              build/default/production/_ext/1360937237/bme280_driver.o (__divdi3)
f:/microchip/xc32/v4.35/bin/bin/../../lib/gcc/pic32mx/8.3.1/../../../../pic32mx/lib/fpu64\libpic32.a(strlen.o)
                              build/default/production/_ext/1360937237/main.o (strlen)
f:/microchip/xc32/v4.35/bin/bin/../../lib/gcc/pic32mx/8.3.1/../../../../pic32mx/lib/fpu64\libpic32.a(default-on-reset.o)
                              C:\Users\huope\AppData\Local\Temp\cc8UKOfV.o (_on_reset)
f:/microchip/xc32/v4.35/bin/bin/../../lib/gcc/pic32mx/8.3.1/../../../../pic32mx/lib/fpu64\libpic32.a(default-on-bootstrap.o)
                              C:\Users\huope\AppData\Local\Temp\cc8UKOfV.o (_on_bootstrap)
f:/microchip/xc32/v4.35/bin/bin/../../lib/gcc/pic32mx/8.3.1/../../../../pic32mx/lib/fpu64\libpic32.a(default-nmi-handler.o)
                              C:\Users\huope\AppData\Local\Temp\cc8UKOfV.o (_nmi_handler)
f:/microchip/xc32/v4.35/bin/bin/../../lib/gcc/pic32mx/8.3.1/../../../../pic32mx/lib/fpu64\libpic32.a(pic32_data_init_core.o)
                              C:\Users\huope\AppData\Local\Temp\cc8UKOfV.o (__pic32_data_init)
f:/microchip/xc32/v4.35/bin/bin/../../lib/gcc/pic32mx/8.3.1/../../../../pic32mx/lib/fpu64\libpic32.a(pic32_init_cache.o)
                              C:\Users\huope\AppData\Local\Temp\cc8UKOfV.o (__pic32_init_cache)
f:/microchip/xc32/v4.35/bin/bin/../../lib/gcc/pic32mx/8.3.1/../../../../pic32mx/lib/fpu64\libpic32.a(pic32_init_tlb_ebi_sqi.o)
                              C:\Users\huope\AppData\Local\Temp\cc8UKOfV.o (__pic32_tlb_init_ebi_sqi)
f:/microchip/xc32/v4.35/bin/bin/../../lib/gcc/pic32mx/8.3.1/../../../../pic32mx/lib/fpu64\libpic32.a(general-exception.o)
                              C:\Users\huope\AppData\Local\Temp\cc8UKOfV.o (_general_exception_context)
f:/microchip/xc32/v4.35/bin/bin/../../lib/gcc/pic32mx/8.3.1/../../../../pic32mx/lib/fpu64\libpic32.a(cache-err-exception.o)
                              C:\Users\huope\AppData\Local\Temp\cc8UKOfV.o (_cache_err_exception_context)
f:/microchip/xc32/v4.35/bin/bin/../../lib/gcc/pic32mx/8.3.1/../../../../pic32mx/lib/fpu64\libpic32.a(simple-tlb-refill-exception.o)
                              C:\Users\huope\AppData\Local\Temp\cc8UKOfV.o (_simple_tlb_refill_exception_context)
f:/microchip/xc32/v4.35/bin/bin/../../lib/gcc/pic32mx/8.3.1/../../../../pic32mx/lib/fpu64\libpic32.a(defaultinterrupt.o)
                              C:\Users\huope\AppData\Local\Temp\ccNW7OMV.o (_DefaultInterrupt)
f:/microchip/xc32/v4.35/bin/bin/../../lib/gcc/pic32mx/8.3.1/../../../../pic32mx/lib/fpu64\libc-musl.a(__sio_sprintf_dn.o)
                              (_sprintf_dn)
f:/microchip/xc32/v4.35/bin/bin/../../lib/gcc/pic32mx/8.3.1/../../../../pic32mx/lib/fpu64\libc-musl.a(__fmt_d.o)
                              f:/microchip/xc32/v4.35/bin/bin/../../lib/gcc/pic32mx/8.3.1/../../../../pic32mx/lib/fpu64\libc-musl.a(__sio_sprintf_dn.o) (__fmt_d_needed)
f:/microchip/xc32/v4.35/bin/bin/../../lib/gcc/pic32mx/8.3.1/../../../../pic32mx/lib/fpu64\libc-musl.a(__pop_int.o)
                              f:/microchip/xc32/v4.35/bin/bin/../../lib/gcc/pic32mx/8.3.1/../../../../pic32mx/lib/fpu64\libc-musl.a(__sio_sprintf_dn.o) (__pop_int_needed)
f:/microchip/xc32/v4.35/bin/bin/../../lib/gcc/pic32mx/8.3.1/../../../../pic32mx/lib/fpu64\libc-musl.a(__pop_ptr.o)
                              f:/microchip/xc32/v4.35/bin/bin/../../lib/gcc/pic32mx/8.3.1/../../../../pic32mx/lib/fpu64\libc-musl.a(__sio_sprintf_dn.o) (__pop_ptr_needed)
f:/microchip/xc32/v4.35/bin/bin/../../lib/gcc/pic32mx/8.3.1/../../../../pic32mx/lib/fpu64\libc-musl.a(__printf_core.o)
                              f:/microchip/xc32/v4.35/bin/bin/../../lib/gcc/pic32mx/8.3.1/../../../../pic32mx/lib/fpu64\libc-musl.a(__fmt_d.o) (__pad)
f:/microchip/xc32/v4.35/bin/bin/../../lib/gcc/pic32mx/8.3.1/../../../../pic32mx/lib/fpu64\libc-musl.a(atoi.o)
                              f:/microchip/xc32/v4.35/bin/bin/../../lib/gcc/pic32mx/8.3.1/../../../../pic32mx/lib/fpu64\libc-musl.a(__printf_core.o) (atoi)
f:/microchip/xc32/v4.35/bin/bin/../../lib/gcc/pic32mx/8.3.1/../../../../pic32mx/lib/fpu64\libc-musl.a(memcpy.o)
                              f:/microchip/xc32/v4.35/bin/bin/../../lib/gcc/pic32mx/8.3.1/../../../../pic32mx/lib/fpu64\libc-musl.a(__printf_core.o) (memcpy)
f:/microchip/xc32/v4.35/bin/bin/../../lib/gcc/pic32mx/8.3.1/../../../../pic32mx/lib/fpu64\libc-musl.a(memset.o)
                              f:/microchip/xc32/v4.35/bin/bin/../../lib/gcc/pic32mx/8.3.1/../../../../pic32mx/lib/fpu64\libc-musl.a(__printf_core.o) (memset)
f:/microchip/xc32/v4.35/bin/bin/../../lib/gcc/pic32mx/8.3.1/../../../../pic32mx/lib/fpu64\libc-musl.a(tolower.o)
                              f:/microchip/xc32/v4.35/bin/bin/../../lib/gcc/pic32mx/8.3.1/../../../../pic32mx/lib/fpu64\libc-musl.a(__printf_core.o) (tolower)
f:/microchip/xc32/v4.35/bin/bin/../../lib/gcc/pic32mx/8.3.1/../../../../pic32mx/lib/fpu64\libc-musl.a(__int_vsprintf.o)
                              f:/microchip/xc32/v4.35/bin/bin/../../lib/gcc/pic32mx/8.3.1/../../../../pic32mx/lib/fpu64\libc-musl.a(__sio_sprintf_dn.o) (__vsprintf)
f:/microchip/xc32/v4.35/bin/bin/../../lib/gcc/pic32mx/8.3.1/../../../../pic32mx/lib/fpu64\libc-musl.a(__cvt_u.o)
                              f:/microchip/xc32/v4.35/bin/bin/../../lib/gcc/pic32mx/8.3.1/../../../../pic32mx/lib/fpu64\libc-musl.a(__fmt_d.o) (__cvt_u)
f:/microchip/xc32/v4.35/bin/bin/../../lib/gcc/pic32mx/8.3.1/../../../../pic32mx/lib/fpu64\libc-musl.a(__pop_float.o)
                              f:/microchip/xc32/v4.35/bin/bin/../../lib/gcc/pic32mx/8.3.1/../../../../pic32mx/lib/fpu64\libc-musl.a(__printf_core.o) (__pop_float)
f:/microchip/xc32/v4.35/bin/bin/../../lib/gcc/pic32mx/8.3.1/../../../../pic32mx/lib/fpu64\libc-musl.a(__int_vsnprintf.o)
                              f:/microchip/xc32/v4.35/bin/bin/../../lib/gcc/pic32mx/8.3.1/../../../../pic32mx/lib/fpu64\libc-musl.a(__int_vsprintf.o) (__vsnprintf)
f:/microchip/xc32/v4.35/bin/bin/../../lib/gcc/pic32mx/8.3.1/../../../../pic32mx/lib/fpu64\libc-musl.a(__int_vfprintf.o)
                              f:/microchip/xc32/v4.35/bin/bin/../../lib/gcc/pic32mx/8.3.1/../../../../pic32mx/lib/fpu64\libc-musl.a(__int_vsnprintf.o) (__vfprintf)
f:/microchip/xc32/v4.35/bin/bin/../../lib/gcc/pic32mx/8.3.1/fpu64\libgcc.a(_udivdi3.o)
                              f:/microchip/xc32/v4.35/bin/bin/../../lib/gcc/pic32mx/8.3.1/../../../../pic32mx/lib/fpu64\libc-musl.a(__cvt_u.o) (__udivdi3)
f:/microchip/xc32/v4.35/bin/bin/../../lib/gcc/pic32mx/8.3.1/fpu64\libgcc.a(_umoddi3.o)
                              f:/microchip/xc32/v4.35/bin/bin/../../lib/gcc/pic32mx/8.3.1/../../../../pic32mx/lib/fpu64\libc-musl.a(__cvt_u.o) (__umoddi3)
f:/microchip/xc32/v4.35/bin/bin/../../lib/gcc/pic32mx/8.3.1/../../../../pic32mx/lib/fpu64\libpic32.a(errno.o)
                              f:/microchip/xc32/v4.35/bin/bin/../../lib/gcc/pic32mx/8.3.1/../../../../pic32mx/lib/fpu64\libc-musl.a(__printf_core.o) (errno)

Optional file vector_offset_init.o not found
f:/microchip/xc32/v4.35/bin/bin/../../lib/gcc/pic32mx/8.3.1/../../../../pic32mx/lib/fpu64\libpic32.a(pic32_data_init_clear.o)
                              (__dinit_clear_needed)
f:/microchip/xc32/v4.35/bin/bin/../../lib/gcc/pic32mx/8.3.1/../../../../pic32mx/lib/fpu64\libpic32.a(pic32_data_init_copy.o)
                              (__dinit_copy_needed)

Microchip PIC32 Memory-Usage Report

kseg0 Program-Memory Usage
section                    address  length [bytes]      (dec)  Description
-------                 ----------  -------------------------  -----------
.simple_tlb_refill_excp 0x9d000000           0x10          16   
.text.BME280_Compensate 0x9d000010           0xf0         240   
.cache_err_excpt        0x9d000100           0x10          16   
.text.DMAC_ChannelCallb 0x9d000110           0x68         104   
.text._on_reset         0x9d000178            0x8           8   
.app_excpt              0x9d000180           0x10          16  General-Exception 
.text.I2C1_CallbackRegi 0x9d000190           0x5c          92   
.rodata                 0x9d0001ec           0x14          20  Read-only const 
.vectors                0x9d000200           0x88         136   
.text.I2C1_TransferSM   0x9d000288          0x754        1876   
.text.BME280_CalibParam 0x9d0009dc          0x6fc        1788   
.text.__printf_core     0x9d0010d8          0x5a4        1444   
.dinit                  0x9d00167c          0x450        1104   
.text                   0x9d001acc          0x774        1908  App's exec code 
.text.main              0x9d002240          0x354         852   
.text.DMAC_ChannelSetAd 0x9d002594          0x2a0         672   
.text.TIMER_2_Handler   0x9d002834          0x29c         668   
.text.I2C1_BUS_Handler  0x9d002ad0          0x29c         668   
.text.I2C1_MASTER_Handl 0x9d002d6c          0x29c         668   
.text.CHANGE_NOTICE_B_H 0x9d003008          0x29c         668   
.text.DMA0_Handler      0x9d0032a4          0x29c         668   
.text.UART2_FAULT_Handl 0x9d003540          0x29c         668   
.text.UART2_RX_Handler  0x9d0037dc          0x29c         668   
.text.UART2_TX_Handler  0x9d003a78          0x29c         668   
.text.DMAC_ChannelTrans 0x9d003d14          0x25c         604   
.text.PasswordDiscovery 0x9d003f70          0x230         560   
.text.DMA0_InterruptHan 0x9d0041a0          0x1ac         428   
.text.UART2_RX_Interrup 0x9d00434c          0x1ac         428   
.text.UART2_TX_Interrup 0x9d0044f8          0x190         400   
.text.BME280_ReadRawWea 0x9d004688          0x188         392   
.text.__pop_int         0x9d004810          0x188         392   
.text.BME280_SetOversam 0x9d004998          0x16c         364   
.text                   0x9d004b04          0x168         360  App's exec code 
.text.GPIO_PinIntEnable 0x9d004c6c          0x164         356   
.text.CHANGE_NOTICE_B_I 0x9d004dd0          0x154         340   
.text.__fmt_d           0x9d004f24          0x150         336   
.text.__cvt_u           0x9d005074          0x13c         316   
.text.GPIO_Initialize   0x9d0051b0          0x128         296   
.text.I2C1_WriteRead    0x9d0052d8          0x128         296   
.text.I2C1_Write        0x9d005400          0x11c         284   
.text.GPIO_PinInterrupt 0x9d00551c          0x114         276   
.text.UART2_Initialize  0x9d005630          0x10c         268   
.text.__pad             0x9d00573c          0x100         256   
.text.__pop_ptr         0x9d00583c           0xe4         228   
.text.CLK_Initialize    0x9d005920           0xe0         224   
.text.general_exception 0x9d005a00           0xdc         220   
.text._cache_err_except 0x9d005adc           0xd8         216   
.text.simple_tlb_refill 0x9d005bb4           0xd8         216   
.text.UART2_Read        0x9d005c8c           0xd4         212   
.rodata                 0x9d005d60           0xd0         208  Read-only const 
.text.DMAC_Initialize   0x9d005e30           0xc8         200   
.text.BME280Sensor_Init 0x9d005ef8           0xc0         192   
.text.EVIC_Initialize   0x9d005fb8           0xbc         188   
.tlb.__pic32_tlb_init_e 0x9d006074           0xbc         188   
.text.SYS_Initialize    0x9d006130           0xb4         180   
.text.UART2_FAULT_Inter 0x9d0061e4           0xac         172   
.text.UART2_ErrorClear  0x9d006290           0xa8         168   
.text.I2C1_Initialize   0x9d006338           0xa0         160   
.text.I2C1_BUS_Interrup 0x9d0063d8           0xa0         160   
.text.BME280Sensor_Writ 0x9d006478           0x90         144   
.text.BME280Sensor_Read 0x9d006508           0x90         144   
.text.BME280Sensor_Read 0x9d006598           0x8c         140   
.text.CORETIMER_DelayMs 0x9d006624           0x88         136   
.text.BME280_PowerMode_ 0x9d0066ac           0x84         132   
.text.__vsnprintf       0x9d006730           0x80         128   
.text                   0x9d0067b0           0x7c         124  App's exec code 
.text.atoi              0x9d00682c           0x7c         124   
.text.TIMER_2_Interrupt 0x9d0068a8           0x78         120   
.text.__string_out      0x9d006920           0x5c          92   
.text.TMR2_Initialize   0x9d00697c           0x58          88   
.text.__fmt_state       0x9d0069d4           0x58          88   
.text.CORETIMER_Initial 0x9d006a2c           0x54          84   
.text.main_entry        0x9d006a80           0x54          84   
.text.UART2_ReadCallbac 0x9d006ad4           0x4c          76   
.text.S1_User_Handler   0x9d006b20           0x4c          76   
.text.I2CBufferEventHan 0x9d006b6c           0x4c          76   
.text.UARTBufferEventHa 0x9d006bb8           0x48          72   
.text.BME280_SoftReset  0x9d006c00           0x48          72   
.text.__pop_float       0x9d006c48           0x48          72   
.text.UARTDmaChannelHan 0x9d006c90           0x44          68   
.text.BME280_RegisterDr 0x9d006cd4           0x44          68   
.text.BME280_RegisterDr 0x9d006d18           0x44          68   
.text.BME280_RegisterDr 0x9d006d5c           0x44          68   
.text                   0x9d006da0           0x44          68  App's exec code 
.text.I2C1_ErrorGet     0x9d006de4           0x40          64   
.text.UART2_ErrorGet    0x9d006e24           0x40          64   
.text.BME280_ID_Get     0x9d006e64           0x40          64   
.text.TMR2_CallbackRegi 0x9d006ea4           0x3c          60   
.text.__vfprintf        0x9d006ee0           0x3c          60   
.text.TMR2_PeriodSet    0x9d006f1c           0x38          56   
.text.I2C1_MASTER_Inter 0x9d006f54           0x34          52   
.text.tmr1EventHandler  0x9d006f88           0x34          52   
.text.BME280_GetTempRea 0x9d006fbc           0x34          52   
.text.TMR2_Start        0x9d006ff0           0x30          48   
.text.TMR2_Stop         0x9d007020           0x30          48   
.text._general_exceptio 0x9d007050           0x30          48   
.text._bootstrap_except 0x9d007080           0x30          48   
.text._cache_err_except 0x9d0070b0           0x30          48   
.text._simple_tlb_refil 0x9d0070e0           0x30          48   
.text.memcpy            0x9d007110           0x2c          44   
.text.__wrap_sprintf    0x9d00713c           0x28          40   
.text.memset            0x9d007164           0x28          40   
.text.__vsprintf        0x9d00718c           0x28          40   
.text                   0x9d0071b4           0x20          32  App's exec code 
.text.tolower           0x9d0071d4           0x1c          28   
.MIPS.abiflags          0x9d0071f0           0x18          24   
.text                   0x9d007208           0x18          24  App's exec code 
.rodata                 0x9d007220           0x18          24  Read-only const 
.text                   0x9d007238           0x18          24  App's exec code 
.rodata.str1.4          0x9d007250            0xc          12   
.text._on_bootstrap     0x9d00725c            0x8           8   
.text.__dummy_fmt3      0x9d007264            0x8           8   
.text.__dummy_fmt4      0x9d00726c            0x8           8   
.text.__dummy_fmts      0x9d007274            0x8           8   
      Total kseg0_program_mem used  :      0x727c       29308  5.6% of 0x80000

kseg0 Boot-Memory Usage
section                    address  length [bytes]      (dec)  Description
-------                 ----------  -------------------------  -----------
         Total kseg0_boot_mem used  :           0           0  

kseg1 Boot-Memory Usage
section                    address  length [bytes]      (dec)  Description
-------                 ----------  -------------------------  -----------
.reset                  0xbfc00000          0x1c4         452  Reset handler 
.bev_excpt              0xbfc00380           0x10          16  BEV-Exception 
         Total kseg1_boot_mem used  :       0x1d4         468  40.6% of 0x480
        --------------------------------------------------------------------------
         Total Program Memory used  :      0x7450       29776  5.7% of 0x80480
        --------------------------------------------------------------------------


Data-Memory Usage
section                    address  length [bytes]      (dec)  Description
-------                 ----------  -------------------------  -----------
.sdata                  0x80000000           0x30          48  Small init data 
.sbss                   0x80000030           0x1c          28  Small uninit data 
.bss.BME280SensorData   0x8000004c           0xcc         204   
.bss.gDMAChannelObj     0x80000118           0x80         128   
.bss.errno              0x80000198            0x4           4   
.bss.uartTxBuffer       0x800001a0           0x64         100   
.bss.BME280DriverData   0x80000204           0x40          64   
.bss.uart2Obj           0x80000244           0x38          56   
.bss.i2c1Obj            0x8000027c           0x34          52   
.bss.data               0x800002b0           0x20          32   
.bss.portPinCbObj       0x800002d0            0xc          12   
         Total kseg0/kseg1 data_mem used  :       0x2d8         728  0.6% of 0x20000
        --------------------------------------------------------------------------
            Total Data Memory used  :       0x2d8         728  0.6% of 0x20000
        --------------------------------------------------------------------------


Dynamic Data-Memory Reservation
section                    address  length [bytes]      (dec)  Description
-------                 ----------  -------------------------  -----------
heap                    0x800002e0          0x200         512  Reserved for heap 
stack                   0x800004f8        0x1faf8      129784  Reserved for stack 

        --------------------------------------------------------------------------

Note: Microchip PIC32 Memory-Usage Report By Module might not be accurate when used in conjunction with LTO!
Microchip PIC32 Memory-Usage Report By Module

        text        data         bss         dec         hex    basename                         filename
--------------------------------------------------------------------------------
        5408           0           0        5408        1520    interrupts.o                 build/default/production/_ext/1171490990/interrupts.o
        3308           0          64        3372         d2c    bme280_driver.o              build/default/production/_ext/1360937237/bme280_driver.o
        2984           0          52        3036         bdc    plib_i2c1_master.o           build/default/production/_ext/513455433/plib_i2c1_master.o
        2584           0         346        2930         b72    main.o                       build/default/production/_ext/1360937237/main.o
        2008           0         128        2136         858    plib_dmac.o                  build/default/production/_ext/1865161661/plib_dmac.o
        1940           0           0        1940         794    __printf_core.o              libc-musl.a
        1788           0          56        1844         734    plib_uart2.o                 build/default/production/_ext/1865657120/plib_uart2.o
        1268           7          12        1287         507    plib_gpio.o                  build/default/production/_ext/1865254177/plib_gpio.o
        1104           0           0        1104         450    data_init                    data_init
         956           0           0         956         3bc    _udivdi3.o                   libgcc.a
         952           0           0         952         3b8    _umoddi3.o                   libgcc.a
           0         668           0         668         29c    ccEw4oan.o                   C:\Users\huope\AppData\Local\Temp\ccEw4oan.o
         600           0           0         600         258    cc8UKOfV.o                   C:\Users\huope\AppData\Local\Temp\cc8UKOfV.o
         448          36           0         484         1e4    pic32_init_cache.o           libpic32.a
         420           0           8         428         1ac    plib_tmr2.o                  build/default/production/_ext/60181895/plib_tmr2.o
         392           0           0         392         188    __pop_int.o                  libc-musl.a
         360           0           0         360         168    strlen.o                     libpic32.a
         336           0           0         336         150    __fmt_d.o                    libc-musl.a
         316           0           0         316         13c    __cvt_u.o                    libc-musl.a
         228           0           0         228          e4    __pop_ptr.o                  libc-musl.a
         224           0           0         224          e0    plib_clk.o                   build/default/production/_ext/60165520/plib_clk.o
         220           4           0         224          e0    plib_coretimer.o             build/default/production/_ext/1249264884/plib_coretimer.o
         220           0           0         220          dc    general-exception.o          libpic32.a
         216           0           0         216          d8    cache-err-exception.o        libpic32.a
         216           0           0         216          d8    simple-tlb-refill-exception.olibpic32.a
         204           0           0         204          cc    initialization.o             build/default/production/_ext/1171490990/initialization.o
         192           0           8         200          c8    exceptions.o                 build/default/production/_ext/1171490990/exceptions.o
         188           0           0         188          bc    plib_evic.o                  build/default/production/_ext/1865200349/plib_evic.o
         188           0           0         188          bc    pic32_init_tlb_ebi_sqi.o     libpic32.a
         144           0           0         144          90    pic32_data_init_core.o       libpic32.a
         128           0           0         128          80    __int_vsnprintf.o            libc-musl.a
         124           0           0         124          7c    atoi.o                       libc-musl.a
          72           0           0          72          48    defaultinterrupt.o           libpic32.a
          72           0           0          72          48    __pop_float.o                libc-musl.a
          68           0           0          68          44    pic32_software_reset.o       f:/microchip/xc32/v4.35/bin/bin/../../lib/gcc/pic32mx/8.3.1/../../../../pic32mx/lib/fpu64\pic32_software_reset.o
          68           0           0          68          44    debug-exception-return.o     f:/microchip/xc32/v4.35/bin/bin/../../lib/gcc/pic32mx/8.3.1/../../../../pic32mx/lib/fpu64\debug-exception-return.o
          60           0           0          60          3c    __int_vfprintf.o             libc-musl.a
          44           0           0          44          2c    memcpy.o                     libc-musl.a
          40           0           0          40          28    __sio_sprintf_dn.o           libc-musl.a
          40           0           0          40          28    memset.o                     libc-musl.a
          40           0           0          40          28    __int_vsprintf.o             libc-musl.a
          32           0           0          32          20    pic32_data_init_copy.o       libpic32.a
          28           0           0          28          1c    tolower.o                    libc-musl.a
          24           0           0          24          18    pic32_data_init_clear.o      libpic32.a
          24           0           0          24          18    default-nmi-handler.o        libpic32.a
           8           0           0           8           8    default-on-bootstrap.o       libpic32.a
           8           0           0           8           8    default-on-reset.o           libpic32.a
           0           0           4           4           4    errno.o                      libpic32.a
          48           0           0          48          30    misc                         misc
           0           0           0           3           3    padding                      padding
--------------------------------------------------------------------------------
       30340         715         678       31736        7bf8    dist/default/production/PIC32MZ_Production.X.production.elf


Discarded input sections

 .text          0x0000000000000000        0x0 f:/microchip/xc32/v4.35/bin/bin/../../lib/gcc/pic32mx/8.3.1/../../../../pic32mx/lib/fpu64\debug-exception-return.o
 .data          0x0000000000000000        0x0 f:/microchip/xc32/v4.35/bin/bin/../../lib/gcc/pic32mx/8.3.1/../../../../pic32mx/lib/fpu64\debug-exception-return.o
 .bss           0x0000000000000000        0x0 f:/microchip/xc32/v4.35/bin/bin/../../lib/gcc/pic32mx/8.3.1/../../../../pic32mx/lib/fpu64\debug-exception-return.o
 .xc_stack_usage.hdr
                0x0000000000000000        0xe f:/microchip/xc32/v4.35/bin/bin/../../lib/gcc/pic32mx/8.3.1/../../../../pic32mx/lib/fpu64\debug-exception-return.o
 .xc_stack_usage
                0x0000000000000000       0x1d f:/microchip/xc32/v4.35/bin/bin/../../lib/gcc/pic32mx/8.3.1/../../../../pic32mx/lib/fpu64\debug-exception-return.o
 .text          0x0000000000000000        0x0 build/default/production/_ext/60165520/plib_clk.o
 .data          0x0000000000000000        0x0 build/default/production/_ext/60165520/plib_clk.o
 .bss           0x0000000000000000        0x0 build/default/production/_ext/60165520/plib_clk.o
 .reginfo       0x0000000000000000       0x18 build/default/production/_ext/60165520/plib_clk.o
 .MIPS.abiflags
                0x0000000000000000       0x18 build/default/production/_ext/60165520/plib_clk.o
 .text          0x0000000000000000        0x0 build/default/production/_ext/1249264884/plib_coretimer.o
 .data          0x0000000000000000        0x0 build/default/production/_ext/1249264884/plib_coretimer.o
 .bss           0x0000000000000000        0x0 build/default/production/_ext/1249264884/plib_coretimer.o
 .reginfo       0x0000000000000000       0x18 build/default/production/_ext/1249264884/plib_coretimer.o
 .MIPS.abiflags
                0x0000000000000000       0x18 build/default/production/_ext/1249264884/plib_coretimer.o
 .text.CORETIMER_Start
                0x0000000000000000       0x74 build/default/production/_ext/1249264884/plib_coretimer.o
 .text.CORETIMER_Stop
                0x0000000000000000       0x40 build/default/production/_ext/1249264884/plib_coretimer.o
 .text.CORETIMER_FrequencyGet
                0x0000000000000000       0x28 build/default/production/_ext/1249264884/plib_coretimer.o
 .text.CORETIMER_CompareSet
                0x0000000000000000       0x44 build/default/production/_ext/1249264884/plib_coretimer.o
 .text.CORETIMER_CounterGet
                0x0000000000000000       0x34 build/default/production/_ext/1249264884/plib_coretimer.o
 .text.CORETIMER_CompareHasExpired
                0x0000000000000000       0x54 build/default/production/_ext/1249264884/plib_coretimer.o
 .text.CORETIMER_DelayUs
                0x0000000000000000       0x78 build/default/production/_ext/1249264884/plib_coretimer.o
 .text          0x0000000000000000        0x0 build/default/production/_ext/1865161661/plib_dmac.o
 .data          0x0000000000000000        0x0 build/default/production/_ext/1865161661/plib_dmac.o
 .bss           0x0000000000000000        0x0 build/default/production/_ext/1865161661/plib_dmac.o
 .reginfo       0x0000000000000000       0x18 build/default/production/_ext/1865161661/plib_dmac.o
 .MIPS.abiflags
                0x0000000000000000       0x18 build/default/production/_ext/1865161661/plib_dmac.o
 .bss.gCRCSetup
                0x0000000000000000       0x14 build/default/production/_ext/1865161661/plib_dmac.o
 .text.DMAC_BitReverse
                0x0000000000000000       0x90 build/default/production/_ext/1865161661/plib_dmac.o
 .text.DMAC_ChainTransferSetup
                0x0000000000000000      0x1b8 build/default/production/_ext/1865161661/plib_dmac.o
 .text.DMAC_ChannelPatternMatchSetup
                0x0000000000000000       0xe0 build/default/production/_ext/1865161661/plib_dmac.o
 .text.DMAC_ChannelPatternMatchDisable
                0x0000000000000000       0x5c build/default/production/_ext/1865161661/plib_dmac.o
 .text.DMAC_ChannelDisable
                0x0000000000000000       0x84 build/default/production/_ext/1865161661/plib_dmac.o
 .text.DMAC_ChannelIsBusy
                0x0000000000000000       0x9c build/default/production/_ext/1865161661/plib_dmac.o
 .text.DMAC_ChannelTransferStatusGet
                0x0000000000000000       0xa0 build/default/production/_ext/1865161661/plib_dmac.o
 .text.DMAC_ChannelCRCSetup
                0x0000000000000000      0x144 build/default/production/_ext/1865161661/plib_dmac.o
 .text.DMAC_CRCDisable
                0x0000000000000000       0x30 build/default/production/_ext/1865161661/plib_dmac.o
 .text.DMAC_CRCRead
                0x0000000000000000       0x88 build/default/production/_ext/1865161661/plib_dmac.o
 .text          0x0000000000000000        0x0 build/default/production/_ext/1865200349/plib_evic.o
 .data          0x0000000000000000        0x0 build/default/production/_ext/1865200349/plib_evic.o
 .bss           0x0000000000000000        0x0 build/default/production/_ext/1865200349/plib_evic.o
 .reginfo       0x0000000000000000       0x18 build/default/production/_ext/1865200349/plib_evic.o
 .MIPS.abiflags
                0x0000000000000000       0x18 build/default/production/_ext/1865200349/plib_evic.o
 .text.EVIC_SourceEnable
                0x0000000000000000       0x68 build/default/production/_ext/1865200349/plib_evic.o
 .text.EVIC_SourceDisable
                0x0000000000000000       0x68 build/default/production/_ext/1865200349/plib_evic.o
 .text.EVIC_SourceIsEnabled
                0x0000000000000000       0x60 build/default/production/_ext/1865200349/plib_evic.o
 .text.EVIC_SourceStatusGet
                0x0000000000000000       0x60 build/default/production/_ext/1865200349/plib_evic.o
 .text.EVIC_SourceStatusSet
                0x0000000000000000       0x68 build/default/production/_ext/1865200349/plib_evic.o
 .text.EVIC_SourceStatusClear
                0x0000000000000000       0x68 build/default/production/_ext/1865200349/plib_evic.o
 .text.EVIC_INT_Enable
                0x0000000000000000       0x30 build/default/production/_ext/1865200349/plib_evic.o
 .text.EVIC_INT_Disable
                0x0000000000000000       0x48 build/default/production/_ext/1865200349/plib_evic.o
 .text.EVIC_INT_Restore
                0x0000000000000000       0x44 build/default/production/_ext/1865200349/plib_evic.o
 .text          0x0000000000000000        0x0 build/default/production/_ext/1865254177/plib_gpio.o
 .data          0x0000000000000000        0x0 build/default/production/_ext/1865254177/plib_gpio.o
 .bss           0x0000000000000000        0x0 build/default/production/_ext/1865254177/plib_gpio.o
 .reginfo       0x0000000000000000       0x18 build/default/production/_ext/1865254177/plib_gpio.o
 .MIPS.abiflags
                0x0000000000000000       0x18 build/default/production/_ext/1865254177/plib_gpio.o
 .text.GPIO_PortRead
                0x0000000000000000       0x3c build/default/production/_ext/1865254177/plib_gpio.o
 .text.GPIO_PortWrite
                0x0000000000000000       0x7c build/default/production/_ext/1865254177/plib_gpio.o
 .text.GPIO_PortLatchRead
                0x0000000000000000       0x3c build/default/production/_ext/1865254177/plib_gpio.o
 .text.GPIO_PortSet
                0x0000000000000000       0x48 build/default/production/_ext/1865254177/plib_gpio.o
 .text.GPIO_PortClear
                0x0000000000000000       0x48 build/default/production/_ext/1865254177/plib_gpio.o
 .text.GPIO_PortToggle
                0x0000000000000000       0x48 build/default/production/_ext/1865254177/plib_gpio.o
 .text.GPIO_PortInputEnable
                0x0000000000000000       0x48 build/default/production/_ext/1865254177/plib_gpio.o
 .text.GPIO_PortOutputEnable
                0x0000000000000000       0x48 build/default/production/_ext/1865254177/plib_gpio.o
 .text.GPIO_PortInterruptEnable
                0x0000000000000000       0x48 build/default/production/_ext/1865254177/plib_gpio.o
 .text.GPIO_PortInterruptDisable
                0x0000000000000000       0x48 build/default/production/_ext/1865254177/plib_gpio.o
 .text.GPIO_PinIntDisable
                0x0000000000000000       0x80 build/default/production/_ext/1865254177/plib_gpio.o
 .text          0x0000000000000000        0x0 build/default/production/_ext/513455433/plib_i2c1_master.o
 .data          0x0000000000000000        0x0 build/default/production/_ext/513455433/plib_i2c1_master.o
 .bss           0x0000000000000000        0x0 build/default/production/_ext/513455433/plib_i2c1_master.o
 .reginfo       0x0000000000000000       0x18 build/default/production/_ext/513455433/plib_i2c1_master.o
 .MIPS.abiflags
                0x0000000000000000       0x18 build/default/production/_ext/513455433/plib_i2c1_master.o
 .text.I2C1_IsBusy
                0x0000000000000000       0x90 build/default/production/_ext/513455433/plib_i2c1_master.o
 .text.I2C1_Read
                0x0000000000000000      0x120 build/default/production/_ext/513455433/plib_i2c1_master.o
 .text.I2C1_TransferSetup
                0x0000000000000000      0x1a4 build/default/production/_ext/513455433/plib_i2c1_master.o
 .text.I2C1_TransferAbort
                0x0000000000000000       0x78 build/default/production/_ext/513455433/plib_i2c1_master.o
 .rodata        0x0000000000000000       0x10 build/default/production/_ext/513455433/plib_i2c1_master.o
 .text          0x0000000000000000        0x0 build/default/production/_ext/60181895/plib_tmr2.o
 .data          0x0000000000000000        0x0 build/default/production/_ext/60181895/plib_tmr2.o
 .bss           0x0000000000000000        0x0 build/default/production/_ext/60181895/plib_tmr2.o
 .reginfo       0x0000000000000000       0x18 build/default/production/_ext/60181895/plib_tmr2.o
 .MIPS.abiflags
                0x0000000000000000       0x18 build/default/production/_ext/60181895/plib_tmr2.o
 .text.TMR2_PeriodGet
                0x0000000000000000       0x2c build/default/production/_ext/60181895/plib_tmr2.o
 .text.TMR2_CounterGet
                0x0000000000000000       0x2c build/default/production/_ext/60181895/plib_tmr2.o
 .text.TMR2_FrequencyGet
                0x0000000000000000       0x28 build/default/production/_ext/60181895/plib_tmr2.o
 .text.TMR2_InterruptEnable
                0x0000000000000000       0x30 build/default/production/_ext/60181895/plib_tmr2.o
 .text.TMR2_InterruptDisable
                0x0000000000000000       0x30 build/default/production/_ext/60181895/plib_tmr2.o
 .text          0x0000000000000000        0x0 build/default/production/_ext/1865657120/plib_uart2.o
 .data          0x0000000000000000        0x0 build/default/production/_ext/1865657120/plib_uart2.o
 .bss           0x0000000000000000        0x0 build/default/production/_ext/1865657120/plib_uart2.o
 .reginfo       0x0000000000000000       0x18 build/default/production/_ext/1865657120/plib_uart2.o
 .MIPS.abiflags
                0x0000000000000000       0x18 build/default/production/_ext/1865657120/plib_uart2.o
 .text.UART2_SerialSetup
                0x0000000000000000      0x228 build/default/production/_ext/1865657120/plib_uart2.o
 .text.UART2_AutoBaudQuery
                0x0000000000000000       0x44 build/default/production/_ext/1865657120/plib_uart2.o
 .text.UART2_AutoBaudSet
                0x0000000000000000       0x44 build/default/production/_ext/1865657120/plib_uart2.o
 .text.UART2_Write
                0x0000000000000000      0x184 build/default/production/_ext/1865657120/plib_uart2.o
 .text.UART2_ReadIsBusy
                0x0000000000000000       0x30 build/default/production/_ext/1865657120/plib_uart2.o
 .text.UART2_ReadCountGet
                0x0000000000000000       0x2c build/default/production/_ext/1865657120/plib_uart2.o
 .text.UART2_ReadAbort
                0x0000000000000000       0x78 build/default/production/_ext/1865657120/plib_uart2.o
 .text.UART2_WriteCallbackRegister
                0x0000000000000000       0x4c build/default/production/_ext/1865657120/plib_uart2.o
 .text.UART2_WriteIsBusy
                0x0000000000000000       0x30 build/default/production/_ext/1865657120/plib_uart2.o
 .text.UART2_WriteCountGet
                0x0000000000000000       0x2c build/default/production/_ext/1865657120/plib_uart2.o
 .text.UART2_TransmitComplete
                0x0000000000000000       0x44 build/default/production/_ext/1865657120/plib_uart2.o
 .text          0x0000000000000000        0x0 build/default/production/_ext/163028504/xc32_monitor.o
 .data          0x0000000000000000        0x0 build/default/production/_ext/163028504/xc32_monitor.o
 .bss           0x0000000000000000        0x0 build/default/production/_ext/163028504/xc32_monitor.o
 .reginfo       0x0000000000000000       0x18 build/default/production/_ext/163028504/xc32_monitor.o
 .MIPS.abiflags
                0x0000000000000000       0x18 build/default/production/_ext/163028504/xc32_monitor.o
 .text.read     0x0000000000000000       0x30 build/default/production/_ext/163028504/xc32_monitor.o
 .text.write    0x0000000000000000       0x30 build/default/production/_ext/163028504/xc32_monitor.o
 .text          0x0000000000000000        0x0 build/default/production/_ext/1171490990/initialization.o
 .data          0x0000000000000000        0x0 build/default/production/_ext/1171490990/initialization.o
 .bss           0x0000000000000000        0x0 build/default/production/_ext/1171490990/initialization.o
 .reginfo       0x0000000000000000       0x18 build/default/production/_ext/1171490990/initialization.o
 .MIPS.abiflags
                0x0000000000000000       0x18 build/default/production/_ext/1171490990/initialization.o
 .text          0x0000000000000000        0x0 build/default/production/_ext/1171490990/interrupts.o
 .data          0x0000000000000000        0x0 build/default/production/_ext/1171490990/interrupts.o
 .bss           0x0000000000000000        0x0 build/default/production/_ext/1171490990/interrupts.o
 .reginfo       0x0000000000000000       0x18 build/default/production/_ext/1171490990/interrupts.o
 .MIPS.abiflags
                0x0000000000000000       0x18 build/default/production/_ext/1171490990/interrupts.o
 .text          0x0000000000000000        0x0 build/default/production/_ext/1171490990/exceptions.o
 .data          0x0000000000000000        0x0 build/default/production/_ext/1171490990/exceptions.o
 .bss           0x0000000000000000        0x0 build/default/production/_ext/1171490990/exceptions.o
 .reginfo       0x0000000000000000       0x18 build/default/production/_ext/1171490990/exceptions.o
 .MIPS.abiflags
                0x0000000000000000       0x18 build/default/production/_ext/1171490990/exceptions.o
 .text          0x0000000000000000        0x0 build/default/production/_ext/1360937237/main.o
 .data          0x0000000000000000        0x0 build/default/production/_ext/1360937237/main.o
 .bss           0x0000000000000000        0x0 build/default/production/_ext/1360937237/main.o
 .reginfo       0x0000000000000000       0x18 build/default/production/_ext/1360937237/main.o
 .MIPS.abiflags
                0x0000000000000000       0x18 build/default/production/_ext/1360937237/main.o
 .text          0x0000000000000000        0x0 build/default/production/_ext/1360937237/bme280_driver.o
 .data          0x0000000000000000        0x0 build/default/production/_ext/1360937237/bme280_driver.o
 .bss           0x0000000000000000        0x0 build/default/production/_ext/1360937237/bme280_driver.o
 .reginfo       0x0000000000000000       0x18 build/default/production/_ext/1360937237/bme280_driver.o
 .MIPS.abiflags
                0x0000000000000000       0x18 build/default/production/_ext/1360937237/bme280_driver.o
 .text.BME280_Compensate_P
                0x0000000000000000      0x668 build/default/production/_ext/1360937237/bme280_driver.o
 .text.BME280_Compensate_H
                0x0000000000000000      0x168 build/default/production/_ext/1360937237/bme280_driver.o
 .text.BME280_GetPressReading
                0x0000000000000000       0x4c build/default/production/_ext/1360937237/bme280_driver.o
 .text.BME280_GetHumReading
                0x0000000000000000       0x60 build/default/production/_ext/1360937237/bme280_driver.o
 .rodata        0x0000000000000000        0x4 build/default/production/_ext/1360937237/bme280_driver.o
 .text          0x0000000000000000        0x0 C:\Users\huope\AppData\Local\Temp\cc8UKOfV.o
 .data          0x0000000000000000        0x0 C:\Users\huope\AppData\Local\Temp\cc8UKOfV.o
 .bss           0x0000000000000000        0x0 C:\Users\huope\AppData\Local\Temp\cc8UKOfV.o
 .reginfo       0x0000000000000000       0x18 C:\Users\huope\AppData\Local\Temp\cc8UKOfV.o
 .MIPS.abiflags
                0x0000000000000000       0x18 C:\Users\huope\AppData\Local\Temp\cc8UKOfV.o
 .text          0x0000000000000000        0x0 C:\Users\huope\AppData\Local\Temp\ccDssib2.o
 .data          0x0000000000000000        0x0 C:\Users\huope\AppData\Local\Temp\ccDssib2.o
 .bss           0x0000000000000000        0x0 C:\Users\huope\AppData\Local\Temp\ccDssib2.o
 .reginfo       0x0000000000000000       0x18 C:\Users\huope\AppData\Local\Temp\ccDssib2.o
 .MIPS.abiflags
                0x0000000000000000       0x18 C:\Users\huope\AppData\Local\Temp\ccDssib2.o
 .text          0x0000000000000000        0x0 C:\Users\huope\AppData\Local\Temp\ccEw4oan.o
 .data          0x0000000000000000        0x0 C:\Users\huope\AppData\Local\Temp\ccEw4oan.o
 .bss           0x0000000000000000        0x0 C:\Users\huope\AppData\Local\Temp\ccEw4oan.o
 .reginfo       0x0000000000000000       0x18 C:\Users\huope\AppData\Local\Temp\ccEw4oan.o
 .MIPS.abiflags
                0x0000000000000000       0x18 C:\Users\huope\AppData\Local\Temp\ccEw4oan.o
 .text          0x0000000000000000        0x0 C:\Users\huope\AppData\Local\Temp\ccNW7OMV.o
 .data          0x0000000000000000        0x0 C:\Users\huope\AppData\Local\Temp\ccNW7OMV.o
 .bss           0x0000000000000000        0x0 C:\Users\huope\AppData\Local\Temp\ccNW7OMV.o
 .reginfo       0x0000000000000000       0x18 C:\Users\huope\AppData\Local\Temp\ccNW7OMV.o
 .MIPS.abiflags
                0x0000000000000000       0x18 C:\Users\huope\AppData\Local\Temp\ccNW7OMV.o
 .discard       0x0000000000000000        0x4 C:\Users\huope\AppData\Local\Temp\ccNW7OMV.o
 .data          0x0000000000000000        0x0 f:/microchip/xc32/v4.35/bin/bin/../../lib/gcc/pic32mx/8.3.1/../../../../pic32mx/lib/fpu64\pic32_software_reset.o
 .bss           0x0000000000000000        0x0 f:/microchip/xc32/v4.35/bin/bin/../../lib/gcc/pic32mx/8.3.1/../../../../pic32mx/lib/fpu64\pic32_software_reset.o
 .reginfo       0x0000000000000000       0x18 f:/microchip/xc32/v4.35/bin/bin/../../lib/gcc/pic32mx/8.3.1/../../../../pic32mx/lib/fpu64\pic32_software_reset.o
 .MIPS.abiflags
                0x0000000000000000       0x18 f:/microchip/xc32/v4.35/bin/bin/../../lib/gcc/pic32mx/8.3.1/../../../../pic32mx/lib/fpu64\pic32_software_reset.o
 .xc_stack_usage.hdr
                0x0000000000000000        0xe f:/microchip/xc32/v4.35/bin/bin/../../lib/gcc/pic32mx/8.3.1/../../../../pic32mx/lib/fpu64\pic32_software_reset.o
 .xc_stack_usage
                0x0000000000000000       0x24 f:/microchip/xc32/v4.35/bin/bin/../../lib/gcc/pic32mx/8.3.1/../../../../pic32mx/lib/fpu64\pic32_software_reset.o
 .text          0x0000000000000000      0x444 f:/microchip/xc32/v4.35/bin/bin/../../lib/gcc/pic32mx/8.3.1/fpu64\libgcc.a(_divdi3.o)
 .data          0x0000000000000000        0x0 f:/microchip/xc32/v4.35/bin/bin/../../lib/gcc/pic32mx/8.3.1/fpu64\libgcc.a(_divdi3.o)
 .bss           0x0000000000000000        0x0 f:/microchip/xc32/v4.35/bin/bin/../../lib/gcc/pic32mx/8.3.1/fpu64\libgcc.a(_divdi3.o)
 .reginfo       0x0000000000000000       0x18 f:/microchip/xc32/v4.35/bin/bin/../../lib/gcc/pic32mx/8.3.1/fpu64\libgcc.a(_divdi3.o)
 .MIPS.abiflags
                0x0000000000000000       0x18 f:/microchip/xc32/v4.35/bin/bin/../../lib/gcc/pic32mx/8.3.1/fpu64\libgcc.a(_divdi3.o)
 .xc_stack_usage
                0x0000000000000000       0x16 f:/microchip/xc32/v4.35/bin/bin/../../lib/gcc/pic32mx/8.3.1/fpu64\libgcc.a(_divdi3.o)
 .xc_stack_usage.hdr
                0x0000000000000000        0xe f:/microchip/xc32/v4.35/bin/bin/../../lib/gcc/pic32mx/8.3.1/fpu64\libgcc.a(_divdi3.o)
 .data          0x0000000000000000        0x0 f:/microchip/xc32/v4.35/bin/bin/../../lib/gcc/pic32mx/8.3.1/../../../../pic32mx/lib/fpu64\libpic32.a(strlen.o)
 .bss           0x0000000000000000        0x0 f:/microchip/xc32/v4.35/bin/bin/../../lib/gcc/pic32mx/8.3.1/../../../../pic32mx/lib/fpu64\libpic32.a(strlen.o)
 .reginfo       0x0000000000000000       0x18 f:/microchip/xc32/v4.35/bin/bin/../../lib/gcc/pic32mx/8.3.1/../../../../pic32mx/lib/fpu64\libpic32.a(strlen.o)
 .MIPS.abiflags
                0x0000000000000000       0x18 f:/microchip/xc32/v4.35/bin/bin/../../lib/gcc/pic32mx/8.3.1/../../../../pic32mx/lib/fpu64\libpic32.a(strlen.o)
 .xc_stack_usage.hdr
                0x0000000000000000        0xe f:/microchip/xc32/v4.35/bin/bin/../../lib/gcc/pic32mx/8.3.1/../../../../pic32mx/lib/fpu64\libpic32.a(strlen.o)
 .xc_stack_usage
                0x0000000000000000       0x14 f:/microchip/xc32/v4.35/bin/bin/../../lib/gcc/pic32mx/8.3.1/../../../../pic32mx/lib/fpu64\libpic32.a(strlen.o)
 .text          0x0000000000000000        0x0 f:/microchip/xc32/v4.35/bin/bin/../../lib/gcc/pic32mx/8.3.1/../../../../pic32mx/lib/fpu64\libpic32.a(default-on-reset.o)
 .data          0x0000000000000000        0x0 f:/microchip/xc32/v4.35/bin/bin/../../lib/gcc/pic32mx/8.3.1/../../../../pic32mx/lib/fpu64\libpic32.a(default-on-reset.o)
 .bss           0x0000000000000000        0x0 f:/microchip/xc32/v4.35/bin/bin/../../lib/gcc/pic32mx/8.3.1/../../../../pic32mx/lib/fpu64\libpic32.a(default-on-reset.o)
 .reginfo       0x0000000000000000       0x18 f:/microchip/xc32/v4.35/bin/bin/../../lib/gcc/pic32mx/8.3.1/../../../../pic32mx/lib/fpu64\libpic32.a(default-on-reset.o)
 .MIPS.abiflags
                0x0000000000000000       0x18 f:/microchip/xc32/v4.35/bin/bin/../../lib/gcc/pic32mx/8.3.1/../../../../pic32mx/lib/fpu64\libpic32.a(default-on-reset.o)
 .xc_stack_usage
                0x0000000000000000       0x17 f:/microchip/xc32/v4.35/bin/bin/../../lib/gcc/pic32mx/8.3.1/../../../../pic32mx/lib/fpu64\libpic32.a(default-on-reset.o)
 .xc_stack_usage.hdr
                0x0000000000000000        0xe f:/microchip/xc32/v4.35/bin/bin/../../lib/gcc/pic32mx/8.3.1/../../../../pic32mx/lib/fpu64\libpic32.a(default-on-reset.o)
 .text          0x0000000000000000        0x0 f:/microchip/xc32/v4.35/bin/bin/../../lib/gcc/pic32mx/8.3.1/../../../../pic32mx/lib/fpu64\libpic32.a(default-on-bootstrap.o)
 .data          0x0000000000000000        0x0 f:/microchip/xc32/v4.35/bin/bin/../../lib/gcc/pic32mx/8.3.1/../../../../pic32mx/lib/fpu64\libpic32.a(default-on-bootstrap.o)
 .bss           0x0000000000000000        0x0 f:/microchip/xc32/v4.35/bin/bin/../../lib/gcc/pic32mx/8.3.1/../../../../pic32mx/lib/fpu64\libpic32.a(default-on-bootstrap.o)
 .reginfo       0x0000000000000000       0x18 f:/microchip/xc32/v4.35/bin/bin/../../lib/gcc/pic32mx/8.3.1/../../../../pic32mx/lib/fpu64\libpic32.a(default-on-bootstrap.o)
 .MIPS.abiflags
                0x0000000000000000       0x18 f:/microchip/xc32/v4.35/bin/bin/../../lib/gcc/pic32mx/8.3.1/../../../../pic32mx/lib/fpu64\libpic32.a(default-on-bootstrap.o)
 .xc_stack_usage
                0x0000000000000000       0x1b f:/microchip/xc32/v4.35/bin/bin/../../lib/gcc/pic32mx/8.3.1/../../../../pic32mx/lib/fpu64\libpic32.a(default-on-bootstrap.o)
 .xc_stack_usage.hdr
                0x0000000000000000        0xe f:/microchip/xc32/v4.35/bin/bin/../../lib/gcc/pic32mx/8.3.1/../../../../pic32mx/lib/fpu64\libpic32.a(default-on-bootstrap.o)
 .data          0x0000000000000000        0x0 f:/microchip/xc32/v4.35/bin/bin/../../lib/gcc/pic32mx/8.3.1/../../../../pic32mx/lib/fpu64\libpic32.a(default-nmi-handler.o)
 .bss           0x0000000000000000        0x0 f:/microchip/xc32/v4.35/bin/bin/../../lib/gcc/pic32mx/8.3.1/../../../../pic32mx/lib/fpu64\libpic32.a(default-nmi-handler.o)
 .reginfo       0x0000000000000000       0x18 f:/microchip/xc32/v4.35/bin/bin/../../lib/gcc/pic32mx/8.3.1/../../../../pic32mx/lib/fpu64\libpic32.a(default-nmi-handler.o)
 .MIPS.abiflags
                0x0000000000000000       0x18 f:/microchip/xc32/v4.35/bin/bin/../../lib/gcc/pic32mx/8.3.1/../../../../pic32mx/lib/fpu64\libpic32.a(default-nmi-handler.o)
 .xc_stack_usage.hdr
                0x0000000000000000        0xe f:/microchip/xc32/v4.35/bin/bin/../../lib/gcc/pic32mx/8.3.1/../../../../pic32mx/lib/fpu64\libpic32.a(default-nmi-handler.o)
 .xc_stack_usage
                0x0000000000000000       0x1a f:/microchip/xc32/v4.35/bin/bin/../../lib/gcc/pic32mx/8.3.1/../../../../pic32mx/lib/fpu64\libpic32.a(default-nmi-handler.o)
 .data          0x0000000000000000        0x0 f:/microchip/xc32/v4.35/bin/bin/../../lib/gcc/pic32mx/8.3.1/../../../../pic32mx/lib/fpu64\libpic32.a(pic32_data_init_core.o)
 .bss           0x0000000000000000        0x0 f:/microchip/xc32/v4.35/bin/bin/../../lib/gcc/pic32mx/8.3.1/../../../../pic32mx/lib/fpu64\libpic32.a(pic32_data_init_core.o)
 .reginfo       0x0000000000000000       0x18 f:/microchip/xc32/v4.35/bin/bin/../../lib/gcc/pic32mx/8.3.1/../../../../pic32mx/lib/fpu64\libpic32.a(pic32_data_init_core.o)
 .MIPS.abiflags
                0x0000000000000000       0x18 f:/microchip/xc32/v4.35/bin/bin/../../lib/gcc/pic32mx/8.3.1/../../../../pic32mx/lib/fpu64\libpic32.a(pic32_data_init_core.o)
 .xc_stack_usage.hdr
                0x0000000000000000        0xe f:/microchip/xc32/v4.35/bin/bin/../../lib/gcc/pic32mx/8.3.1/../../../../pic32mx/lib/fpu64\libpic32.a(pic32_data_init_core.o)
 .xc_stack_usage
                0x0000000000000000       0x41 f:/microchip/xc32/v4.35/bin/bin/../../lib/gcc/pic32mx/8.3.1/../../../../pic32mx/lib/fpu64\libpic32.a(pic32_data_init_core.o)
 .text          0x0000000000000000        0x0 f:/microchip/xc32/v4.35/bin/bin/../../lib/gcc/pic32mx/8.3.1/../../../../pic32mx/lib/fpu64\libpic32.a(pic32_init_cache.o)
 .data          0x0000000000000000        0x0 f:/microchip/xc32/v4.35/bin/bin/../../lib/gcc/pic32mx/8.3.1/../../../../pic32mx/lib/fpu64\libpic32.a(pic32_init_cache.o)
 .bss           0x0000000000000000        0x0 f:/microchip/xc32/v4.35/bin/bin/../../lib/gcc/pic32mx/8.3.1/../../../../pic32mx/lib/fpu64\libpic32.a(pic32_init_cache.o)
 .reginfo       0x0000000000000000       0x18 f:/microchip/xc32/v4.35/bin/bin/../../lib/gcc/pic32mx/8.3.1/../../../../pic32mx/lib/fpu64\libpic32.a(pic32_init_cache.o)
 .MIPS.abiflags
                0x0000000000000000       0x18 f:/microchip/xc32/v4.35/bin/bin/../../lib/gcc/pic32mx/8.3.1/../../../../pic32mx/lib/fpu64\libpic32.a(pic32_init_cache.o)
 .cache_init.pic32_size_cache
                0x0000000000000000       0x58 f:/microchip/xc32/v4.35/bin/bin/../../lib/gcc/pic32mx/8.3.1/../../../../pic32mx/lib/fpu64\libpic32.a(pic32_init_cache.o)
 .xc_stack_usage.hdr
                0x0000000000000000        0xe f:/microchip/xc32/v4.35/bin/bin/../../lib/gcc/pic32mx/8.3.1/../../../../pic32mx/lib/fpu64\libpic32.a(pic32_init_cache.o)
 .xc_stack_usage
                0x0000000000000000       0x5a f:/microchip/xc32/v4.35/bin/bin/../../lib/gcc/pic32mx/8.3.1/../../../../pic32mx/lib/fpu64\libpic32.a(pic32_init_cache.o)
 .text          0x0000000000000000        0x0 f:/microchip/xc32/v4.35/bin/bin/../../lib/gcc/pic32mx/8.3.1/../../../../pic32mx/lib/fpu64\libpic32.a(pic32_init_tlb_ebi_sqi.o)
 .data          0x0000000000000000        0x0 f:/microchip/xc32/v4.35/bin/bin/../../lib/gcc/pic32mx/8.3.1/../../../../pic32mx/lib/fpu64\libpic32.a(pic32_init_tlb_ebi_sqi.o)
 .bss           0x0000000000000000        0x0 f:/microchip/xc32/v4.35/bin/bin/../../lib/gcc/pic32mx/8.3.1/../../../../pic32mx/lib/fpu64\libpic32.a(pic32_init_tlb_ebi_sqi.o)
 .reginfo       0x0000000000000000       0x18 f:/microchip/xc32/v4.35/bin/bin/../../lib/gcc/pic32mx/8.3.1/../../../../pic32mx/lib/fpu64\libpic32.a(pic32_init_tlb_ebi_sqi.o)
 .MIPS.abiflags
                0x0000000000000000       0x18 f:/microchip/xc32/v4.35/bin/bin/../../lib/gcc/pic32mx/8.3.1/../../../../pic32mx/lib/fpu64\libpic32.a(pic32_init_tlb_ebi_sqi.o)
 .xc_stack_usage.hdr
                0x0000000000000000        0xe f:/microchip/xc32/v4.35/bin/bin/../../lib/gcc/pic32mx/8.3.1/../../../../pic32mx/lib/fpu64\libpic32.a(pic32_init_tlb_ebi_sqi.o)
 .xc_stack_usage
                0x0000000000000000       0x26 f:/microchip/xc32/v4.35/bin/bin/../../lib/gcc/pic32mx/8.3.1/../../../../pic32mx/lib/fpu64\libpic32.a(pic32_init_tlb_ebi_sqi.o)
 .text          0x0000000000000000        0x0 f:/microchip/xc32/v4.35/bin/bin/../../lib/gcc/pic32mx/8.3.1/../../../../pic32mx/lib/fpu64\libpic32.a(general-exception.o)
 .data          0x0000000000000000        0x0 f:/microchip/xc32/v4.35/bin/bin/../../lib/gcc/pic32mx/8.3.1/../../../../pic32mx/lib/fpu64\libpic32.a(general-exception.o)
 .bss           0x0000000000000000        0x0 f:/microchip/xc32/v4.35/bin/bin/../../lib/gcc/pic32mx/8.3.1/../../../../pic32mx/lib/fpu64\libpic32.a(general-exception.o)
 .reginfo       0x0000000000000000       0x18 f:/microchip/xc32/v4.35/bin/bin/../../lib/gcc/pic32mx/8.3.1/../../../../pic32mx/lib/fpu64\libpic32.a(general-exception.o)
 .MIPS.abiflags
                0x0000000000000000       0x18 f:/microchip/xc32/v4.35/bin/bin/../../lib/gcc/pic32mx/8.3.1/../../../../pic32mx/lib/fpu64\libpic32.a(general-exception.o)
 .xc_stack_usage.hdr
                0x0000000000000000        0xe f:/microchip/xc32/v4.35/bin/bin/../../lib/gcc/pic32mx/8.3.1/../../../../pic32mx/lib/fpu64\libpic32.a(general-exception.o)
 .xc_stack_usage
                0x0000000000000000       0x28 f:/microchip/xc32/v4.35/bin/bin/../../lib/gcc/pic32mx/8.3.1/../../../../pic32mx/lib/fpu64\libpic32.a(general-exception.o)
 .text          0x0000000000000000        0x0 f:/microchip/xc32/v4.35/bin/bin/../../lib/gcc/pic32mx/8.3.1/../../../../pic32mx/lib/fpu64\libpic32.a(cache-err-exception.o)
 .data          0x0000000000000000        0x0 f:/microchip/xc32/v4.35/bin/bin/../../lib/gcc/pic32mx/8.3.1/../../../../pic32mx/lib/fpu64\libpic32.a(cache-err-exception.o)
 .bss           0x0000000000000000        0x0 f:/microchip/xc32/v4.35/bin/bin/../../lib/gcc/pic32mx/8.3.1/../../../../pic32mx/lib/fpu64\libpic32.a(cache-err-exception.o)
 .reginfo       0x0000000000000000       0x18 f:/microchip/xc32/v4.35/bin/bin/../../lib/gcc/pic32mx/8.3.1/../../../../pic32mx/lib/fpu64\libpic32.a(cache-err-exception.o)
 .MIPS.abiflags
                0x0000000000000000       0x18 f:/microchip/xc32/v4.35/bin/bin/../../lib/gcc/pic32mx/8.3.1/../../../../pic32mx/lib/fpu64\libpic32.a(cache-err-exception.o)
 .xc_stack_usage.hdr
                0x0000000000000000        0xe f:/microchip/xc32/v4.35/bin/bin/../../lib/gcc/pic32mx/8.3.1/../../../../pic32mx/lib/fpu64\libpic32.a(cache-err-exception.o)
 .xc_stack_usage
                0x0000000000000000       0x2a f:/microchip/xc32/v4.35/bin/bin/../../lib/gcc/pic32mx/8.3.1/../../../../pic32mx/lib/fpu64\libpic32.a(cache-err-exception.o)
 .text          0x0000000000000000        0x0 f:/microchip/xc32/v4.35/bin/bin/../../lib/gcc/pic32mx/8.3.1/../../../../pic32mx/lib/fpu64\libpic32.a(simple-tlb-refill-exception.o)
 .data          0x0000000000000000        0x0 f:/microchip/xc32/v4.35/bin/bin/../../lib/gcc/pic32mx/8.3.1/../../../../pic32mx/lib/fpu64\libpic32.a(simple-tlb-refill-exception.o)
 .bss           0x0000000000000000        0x0 f:/microchip/xc32/v4.35/bin/bin/../../lib/gcc/pic32mx/8.3.1/../../../../pic32mx/lib/fpu64\libpic32.a(simple-tlb-refill-exception.o)
 .reginfo       0x0000000000000000       0x18 f:/microchip/xc32/v4.35/bin/bin/../../lib/gcc/pic32mx/8.3.1/../../../../pic32mx/lib/fpu64\libpic32.a(simple-tlb-refill-exception.o)
 .MIPS.abiflags
                0x0000000000000000       0x18 f:/microchip/xc32/v4.35/bin/bin/../../lib/gcc/pic32mx/8.3.1/../../../../pic32mx/lib/fpu64\libpic32.a(simple-tlb-refill-exception.o)
 .xc_stack_usage.hdr
                0x0000000000000000        0xe f:/microchip/xc32/v4.35/bin/bin/../../lib/gcc/pic32mx/8.3.1/../../../../pic32mx/lib/fpu64\libpic32.a(simple-tlb-refill-exception.o)
 .xc_stack_usage
                0x0000000000000000       0x32 f:/microchip/xc32/v4.35/bin/bin/../../lib/gcc/pic32mx/8.3.1/../../../../pic32mx/lib/fpu64\libpic32.a(simple-tlb-refill-exception.o)
 .text          0x0000000000000000        0x0 f:/microchip/xc32/v4.35/bin/bin/../../lib/gcc/pic32mx/8.3.1/../../../../pic32mx/lib/fpu64\libpic32.a(defaultinterrupt.o)
 .data          0x0000000000000000        0x0 f:/microchip/xc32/v4.35/bin/bin/../../lib/gcc/pic32mx/8.3.1/../../../../pic32mx/lib/fpu64\libpic32.a(defaultinterrupt.o)
 .bss           0x0000000000000000        0x0 f:/microchip/xc32/v4.35/bin/bin/../../lib/gcc/pic32mx/8.3.1/../../../../pic32mx/lib/fpu64\libpic32.a(defaultinterrupt.o)
 .reginfo       0x0000000000000000       0x18 f:/microchip/xc32/v4.35/bin/bin/../../lib/gcc/pic32mx/8.3.1/../../../../pic32mx/lib/fpu64\libpic32.a(defaultinterrupt.o)
 .MIPS.abiflags
                0x0000000000000000       0x18 f:/microchip/xc32/v4.35/bin/bin/../../lib/gcc/pic32mx/8.3.1/../../../../pic32mx/lib/fpu64\libpic32.a(defaultinterrupt.o)
 .xc_stack_usage
                0x0000000000000000       0x1f f:/microchip/xc32/v4.35/bin/bin/../../lib/gcc/pic32mx/8.3.1/../../../../pic32mx/lib/fpu64\libpic32.a(defaultinterrupt.o)
 .xc_stack_usage.hdr
                0x0000000000000000        0xe f:/microchip/xc32/v4.35/bin/bin/../../lib/gcc/pic32mx/8.3.1/../../../../pic32mx/lib/fpu64\libpic32.a(defaultinterrupt.o)
 .text          0x0000000000000000        0x0 f:/microchip/xc32/v4.35/bin/bin/../../lib/gcc/pic32mx/8.3.1/../../../../pic32mx/lib/fpu64\libc-musl.a(__sio_sprintf_dn.o)
 .data          0x0000000000000000        0x0 f:/microchip/xc32/v4.35/bin/bin/../../lib/gcc/pic32mx/8.3.1/../../../../pic32mx/lib/fpu64\libc-musl.a(__sio_sprintf_dn.o)
 .bss           0x0000000000000000        0x0 f:/microchip/xc32/v4.35/bin/bin/../../lib/gcc/pic32mx/8.3.1/../../../../pic32mx/lib/fpu64\libc-musl.a(__sio_sprintf_dn.o)
 .reginfo       0x0000000000000000       0x18 f:/microchip/xc32/v4.35/bin/bin/../../lib/gcc/pic32mx/8.3.1/../../../../pic32mx/lib/fpu64\libc-musl.a(__sio_sprintf_dn.o)
 .MIPS.abiflags
                0x0000000000000000       0x18 f:/microchip/xc32/v4.35/bin/bin/../../lib/gcc/pic32mx/8.3.1/../../../../pic32mx/lib/fpu64\libc-musl.a(__sio_sprintf_dn.o)
 .xc_stack_usage
                0x0000000000000000       0x3a f:/microchip/xc32/v4.35/bin/bin/../../lib/gcc/pic32mx/8.3.1/../../../../pic32mx/lib/fpu64\libc-musl.a(__sio_sprintf_dn.o)
 .text.__sio_sprintf_dn
                0x0000000000000000       0x2c f:/microchip/xc32/v4.35/bin/bin/../../lib/gcc/pic32mx/8.3.1/../../../../pic32mx/lib/fpu64\libc-musl.a(__sio_sprintf_dn.o)
 .xc_stack_usage.hdr
                0x0000000000000000        0xe f:/microchip/xc32/v4.35/bin/bin/../../lib/gcc/pic32mx/8.3.1/../../../../pic32mx/lib/fpu64\libc-musl.a(__sio_sprintf_dn.o)
 .note.GNU-stack
                0x0000000000000000        0x0 f:/microchip/xc32/v4.35/bin/bin/../../lib/gcc/pic32mx/8.3.1/../../../../pic32mx/lib/fpu64\libc-musl.a(__sio_sprintf_dn.o)
 .text          0x0000000000000000        0x0 f:/microchip/xc32/v4.35/bin/bin/../../lib/gcc/pic32mx/8.3.1/../../../../pic32mx/lib/fpu64\libc-musl.a(__fmt_d.o)
 .data          0x0000000000000000        0x0 f:/microchip/xc32/v4.35/bin/bin/../../lib/gcc/pic32mx/8.3.1/../../../../pic32mx/lib/fpu64\libc-musl.a(__fmt_d.o)
 .bss           0x0000000000000000        0x0 f:/microchip/xc32/v4.35/bin/bin/../../lib/gcc/pic32mx/8.3.1/../../../../pic32mx/lib/fpu64\libc-musl.a(__fmt_d.o)
 .reginfo       0x0000000000000000       0x18 f:/microchip/xc32/v4.35/bin/bin/../../lib/gcc/pic32mx/8.3.1/../../../../pic32mx/lib/fpu64\libc-musl.a(__fmt_d.o)
 .MIPS.abiflags
                0x0000000000000000       0x18 f:/microchip/xc32/v4.35/bin/bin/../../lib/gcc/pic32mx/8.3.1/../../../../pic32mx/lib/fpu64\libc-musl.a(__fmt_d.o)
 .xc_stack_usage
                0x0000000000000000       0x15 f:/microchip/xc32/v4.35/bin/bin/../../lib/gcc/pic32mx/8.3.1/../../../../pic32mx/lib/fpu64\libc-musl.a(__fmt_d.o)
 .xc_stack_usage.hdr
                0x0000000000000000        0xe f:/microchip/xc32/v4.35/bin/bin/../../lib/gcc/pic32mx/8.3.1/../../../../pic32mx/lib/fpu64\libc-musl.a(__fmt_d.o)
 .note.GNU-stack
                0x0000000000000000        0x0 f:/microchip/xc32/v4.35/bin/bin/../../lib/gcc/pic32mx/8.3.1/../../../../pic32mx/lib/fpu64\libc-musl.a(__fmt_d.o)
 .text          0x0000000000000000        0x0 f:/microchip/xc32/v4.35/bin/bin/../../lib/gcc/pic32mx/8.3.1/../../../../pic32mx/lib/fpu64\libc-musl.a(__pop_int.o)
 .data          0x0000000000000000        0x0 f:/microchip/xc32/v4.35/bin/bin/../../lib/gcc/pic32mx/8.3.1/../../../../pic32mx/lib/fpu64\libc-musl.a(__pop_int.o)
 .bss           0x0000000000000000        0x0 f:/microchip/xc32/v4.35/bin/bin/../../lib/gcc/pic32mx/8.3.1/../../../../pic32mx/lib/fpu64\libc-musl.a(__pop_int.o)
 .reginfo       0x0000000000000000       0x18 f:/microchip/xc32/v4.35/bin/bin/../../lib/gcc/pic32mx/8.3.1/../../../../pic32mx/lib/fpu64\libc-musl.a(__pop_int.o)
 .MIPS.abiflags
                0x0000000000000000       0x18 f:/microchip/xc32/v4.35/bin/bin/../../lib/gcc/pic32mx/8.3.1/../../../../pic32mx/lib/fpu64\libc-musl.a(__pop_int.o)
 .xc_stack_usage
                0x0000000000000000       0x17 f:/microchip/xc32/v4.35/bin/bin/../../lib/gcc/pic32mx/8.3.1/../../../../pic32mx/lib/fpu64\libc-musl.a(__pop_int.o)
 .xc_stack_usage.hdr
                0x0000000000000000        0xe f:/microchip/xc32/v4.35/bin/bin/../../lib/gcc/pic32mx/8.3.1/../../../../pic32mx/lib/fpu64\libc-musl.a(__pop_int.o)
 .note.GNU-stack
                0x0000000000000000        0x0 f:/microchip/xc32/v4.35/bin/bin/../../lib/gcc/pic32mx/8.3.1/../../../../pic32mx/lib/fpu64\libc-musl.a(__pop_int.o)
 .text          0x0000000000000000        0x0 f:/microchip/xc32/v4.35/bin/bin/../../lib/gcc/pic32mx/8.3.1/../../../../pic32mx/lib/fpu64\libc-musl.a(__pop_ptr.o)
 .data          0x0000000000000000        0x0 f:/microchip/xc32/v4.35/bin/bin/../../lib/gcc/pic32mx/8.3.1/../../../../pic32mx/lib/fpu64\libc-musl.a(__pop_ptr.o)
 .bss           0x0000000000000000        0x0 f:/microchip/xc32/v4.35/bin/bin/../../lib/gcc/pic32mx/8.3.1/../../../../pic32mx/lib/fpu64\libc-musl.a(__pop_ptr.o)
 .reginfo       0x0000000000000000       0x18 f:/microchip/xc32/v4.35/bin/bin/../../lib/gcc/pic32mx/8.3.1/../../../../pic32mx/lib/fpu64\libc-musl.a(__pop_ptr.o)
 .MIPS.abiflags
                0x0000000000000000       0x18 f:/microchip/xc32/v4.35/bin/bin/../../lib/gcc/pic32mx/8.3.1/../../../../pic32mx/lib/fpu64\libc-musl.a(__pop_ptr.o)
 .xc_stack_usage
                0x0000000000000000       0x17 f:/microchip/xc32/v4.35/bin/bin/../../lib/gcc/pic32mx/8.3.1/../../../../pic32mx/lib/fpu64\libc-musl.a(__pop_ptr.o)
 .xc_stack_usage.hdr
                0x0000000000000000        0xe f:/microchip/xc32/v4.35/bin/bin/../../lib/gcc/pic32mx/8.3.1/../../../../pic32mx/lib/fpu64\libc-musl.a(__pop_ptr.o)
 .note.GNU-stack
                0x0000000000000000        0x0 f:/microchip/xc32/v4.35/bin/bin/../../lib/gcc/pic32mx/8.3.1/../../../../pic32mx/lib/fpu64\libc-musl.a(__pop_ptr.o)
 .text          0x0000000000000000        0x0 f:/microchip/xc32/v4.35/bin/bin/../../lib/gcc/pic32mx/8.3.1/../../../../pic32mx/lib/fpu64\libc-musl.a(__printf_core.o)
 .data          0x0000000000000000        0x0 f:/microchip/xc32/v4.35/bin/bin/../../lib/gcc/pic32mx/8.3.1/../../../../pic32mx/lib/fpu64\libc-musl.a(__printf_core.o)
 .bss           0x0000000000000000        0x0 f:/microchip/xc32/v4.35/bin/bin/../../lib/gcc/pic32mx/8.3.1/../../../../pic32mx/lib/fpu64\libc-musl.a(__printf_core.o)
 .reginfo       0x0000000000000000       0x18 f:/microchip/xc32/v4.35/bin/bin/../../lib/gcc/pic32mx/8.3.1/../../../../pic32mx/lib/fpu64\libc-musl.a(__printf_core.o)
 .MIPS.abiflags
                0x0000000000000000       0x18 f:/microchip/xc32/v4.35/bin/bin/../../lib/gcc/pic32mx/8.3.1/../../../../pic32mx/lib/fpu64\libc-musl.a(__printf_core.o)
 .xc_stack_usage
                0x0000000000000000       0xaf f:/microchip/xc32/v4.35/bin/bin/../../lib/gcc/pic32mx/8.3.1/../../../../pic32mx/lib/fpu64\libc-musl.a(__printf_core.o)
 .xc_stack_usage.hdr
                0x0000000000000000        0xe f:/microchip/xc32/v4.35/bin/bin/../../lib/gcc/pic32mx/8.3.1/../../../../pic32mx/lib/fpu64\libc-musl.a(__printf_core.o)
 .note.GNU-stack
                0x0000000000000000        0x0 f:/microchip/xc32/v4.35/bin/bin/../../lib/gcc/pic32mx/8.3.1/../../../../pic32mx/lib/fpu64\libc-musl.a(__printf_core.o)
 .text          0x0000000000000000        0x0 f:/microchip/xc32/v4.35/bin/bin/../../lib/gcc/pic32mx/8.3.1/../../../../pic32mx/lib/fpu64\libc-musl.a(atoi.o)
 .data          0x0000000000000000        0x0 f:/microchip/xc32/v4.35/bin/bin/../../lib/gcc/pic32mx/8.3.1/../../../../pic32mx/lib/fpu64\libc-musl.a(atoi.o)
 .bss           0x0000000000000000        0x0 f:/microchip/xc32/v4.35/bin/bin/../../lib/gcc/pic32mx/8.3.1/../../../../pic32mx/lib/fpu64\libc-musl.a(atoi.o)
 .reginfo       0x0000000000000000       0x18 f:/microchip/xc32/v4.35/bin/bin/../../lib/gcc/pic32mx/8.3.1/../../../../pic32mx/lib/fpu64\libc-musl.a(atoi.o)
 .MIPS.abiflags
                0x0000000000000000       0x18 f:/microchip/xc32/v4.35/bin/bin/../../lib/gcc/pic32mx/8.3.1/../../../../pic32mx/lib/fpu64\libc-musl.a(atoi.o)
 .xc_stack_usage
                0x0000000000000000       0x12 f:/microchip/xc32/v4.35/bin/bin/../../lib/gcc/pic32mx/8.3.1/../../../../pic32mx/lib/fpu64\libc-musl.a(atoi.o)
 .xc_stack_usage.hdr
                0x0000000000000000        0xe f:/microchip/xc32/v4.35/bin/bin/../../lib/gcc/pic32mx/8.3.1/../../../../pic32mx/lib/fpu64\libc-musl.a(atoi.o)
 .note.GNU-stack
                0x0000000000000000        0x0 f:/microchip/xc32/v4.35/bin/bin/../../lib/gcc/pic32mx/8.3.1/../../../../pic32mx/lib/fpu64\libc-musl.a(atoi.o)
 .text          0x0000000000000000        0x0 f:/microchip/xc32/v4.35/bin/bin/../../lib/gcc/pic32mx/8.3.1/../../../../pic32mx/lib/fpu64\libc-musl.a(memcpy.o)
 .data          0x0000000000000000        0x0 f:/microchip/xc32/v4.35/bin/bin/../../lib/gcc/pic32mx/8.3.1/../../../../pic32mx/lib/fpu64\libc-musl.a(memcpy.o)
 .bss           0x0000000000000000        0x0 f:/microchip/xc32/v4.35/bin/bin/../../lib/gcc/pic32mx/8.3.1/../../../../pic32mx/lib/fpu64\libc-musl.a(memcpy.o)
 .reginfo       0x0000000000000000       0x18 f:/microchip/xc32/v4.35/bin/bin/../../lib/gcc/pic32mx/8.3.1/../../../../pic32mx/lib/fpu64\libc-musl.a(memcpy.o)
 .MIPS.abiflags
                0x0000000000000000       0x18 f:/microchip/xc32/v4.35/bin/bin/../../lib/gcc/pic32mx/8.3.1/../../../../pic32mx/lib/fpu64\libc-musl.a(memcpy.o)
 .xc_stack_usage
                0x0000000000000000       0x14 f:/microchip/xc32/v4.35/bin/bin/../../lib/gcc/pic32mx/8.3.1/../../../../pic32mx/lib/fpu64\libc-musl.a(memcpy.o)
 .xc_stack_usage.hdr
                0x0000000000000000        0xe f:/microchip/xc32/v4.35/bin/bin/../../lib/gcc/pic32mx/8.3.1/../../../../pic32mx/lib/fpu64\libc-musl.a(memcpy.o)
 .note.GNU-stack
                0x0000000000000000        0x0 f:/microchip/xc32/v4.35/bin/bin/../../lib/gcc/pic32mx/8.3.1/../../../../pic32mx/lib/fpu64\libc-musl.a(memcpy.o)
 .text          0x0000000000000000        0x0 f:/microchip/xc32/v4.35/bin/bin/../../lib/gcc/pic32mx/8.3.1/../../../../pic32mx/lib/fpu64\libc-musl.a(memset.o)
 .data          0x0000000000000000        0x0 f:/microchip/xc32/v4.35/bin/bin/../../lib/gcc/pic32mx/8.3.1/../../../../pic32mx/lib/fpu64\libc-musl.a(memset.o)
 .bss           0x0000000000000000        0x0 f:/microchip/xc32/v4.35/bin/bin/../../lib/gcc/pic32mx/8.3.1/../../../../pic32mx/lib/fpu64\libc-musl.a(memset.o)
 .reginfo       0x0000000000000000       0x18 f:/microchip/xc32/v4.35/bin/bin/../../lib/gcc/pic32mx/8.3.1/../../../../pic32mx/lib/fpu64\libc-musl.a(memset.o)
 .MIPS.abiflags
                0x0000000000000000       0x18 f:/microchip/xc32/v4.35/bin/bin/../../lib/gcc/pic32mx/8.3.1/../../../../pic32mx/lib/fpu64\libc-musl.a(memset.o)
 .xc_stack_usage
                0x0000000000000000       0x14 f:/microchip/xc32/v4.35/bin/bin/../../lib/gcc/pic32mx/8.3.1/../../../../pic32mx/lib/fpu64\libc-musl.a(memset.o)
 .xc_stack_usage.hdr
                0x0000000000000000        0xe f:/microchip/xc32/v4.35/bin/bin/../../lib/gcc/pic32mx/8.3.1/../../../../pic32mx/lib/fpu64\libc-musl.a(memset.o)
 .note.GNU-stack
                0x0000000000000000        0x0 f:/microchip/xc32/v4.35/bin/bin/../../lib/gcc/pic32mx/8.3.1/../../../../pic32mx/lib/fpu64\libc-musl.a(memset.o)
 .text          0x0000000000000000        0x0 f:/microchip/xc32/v4.35/bin/bin/../../lib/gcc/pic32mx/8.3.1/../../../../pic32mx/lib/fpu64\libc-musl.a(tolower.o)
 .data          0x0000000000000000        0x0 f:/microchip/xc32/v4.35/bin/bin/../../lib/gcc/pic32mx/8.3.1/../../../../pic32mx/lib/fpu64\libc-musl.a(tolower.o)
 .bss           0x0000000000000000        0x0 f:/microchip/xc32/v4.35/bin/bin/../../lib/gcc/pic32mx/8.3.1/../../../../pic32mx/lib/fpu64\libc-musl.a(tolower.o)
 .reginfo       0x0000000000000000       0x18 f:/microchip/xc32/v4.35/bin/bin/../../lib/gcc/pic32mx/8.3.1/../../../../pic32mx/lib/fpu64\libc-musl.a(tolower.o)
 .MIPS.abiflags
                0x0000000000000000       0x18 f:/microchip/xc32/v4.35/bin/bin/../../lib/gcc/pic32mx/8.3.1/../../../../pic32mx/lib/fpu64\libc-musl.a(tolower.o)
 .xc_stack_usage
                0x0000000000000000       0x2e f:/microchip/xc32/v4.35/bin/bin/../../lib/gcc/pic32mx/8.3.1/../../../../pic32mx/lib/fpu64\libc-musl.a(tolower.o)
 .text.__tolower_l
                0x0000000000000000       0x1c f:/microchip/xc32/v4.35/bin/bin/../../lib/gcc/pic32mx/8.3.1/../../../../pic32mx/lib/fpu64\libc-musl.a(tolower.o)
 .xc_stack_usage.hdr
                0x0000000000000000        0xe f:/microchip/xc32/v4.35/bin/bin/../../lib/gcc/pic32mx/8.3.1/../../../../pic32mx/lib/fpu64\libc-musl.a(tolower.o)
 .note.GNU-stack
                0x0000000000000000        0x0 f:/microchip/xc32/v4.35/bin/bin/../../lib/gcc/pic32mx/8.3.1/../../../../pic32mx/lib/fpu64\libc-musl.a(tolower.o)
 .text          0x0000000000000000        0x0 f:/microchip/xc32/v4.35/bin/bin/../../lib/gcc/pic32mx/8.3.1/../../../../pic32mx/lib/fpu64\libc-musl.a(__int_vsprintf.o)
 .data          0x0000000000000000        0x0 f:/microchip/xc32/v4.35/bin/bin/../../lib/gcc/pic32mx/8.3.1/../../../../pic32mx/lib/fpu64\libc-musl.a(__int_vsprintf.o)
 .bss           0x0000000000000000        0x0 f:/microchip/xc32/v4.35/bin/bin/../../lib/gcc/pic32mx/8.3.1/../../../../pic32mx/lib/fpu64\libc-musl.a(__int_vsprintf.o)
 .reginfo       0x0000000000000000       0x18 f:/microchip/xc32/v4.35/bin/bin/../../lib/gcc/pic32mx/8.3.1/../../../../pic32mx/lib/fpu64\libc-musl.a(__int_vsprintf.o)
 .MIPS.abiflags
                0x0000000000000000       0x18 f:/microchip/xc32/v4.35/bin/bin/../../lib/gcc/pic32mx/8.3.1/../../../../pic32mx/lib/fpu64\libc-musl.a(__int_vsprintf.o)
 .xc_stack_usage
                0x0000000000000000       0x18 f:/microchip/xc32/v4.35/bin/bin/../../lib/gcc/pic32mx/8.3.1/../../../../pic32mx/lib/fpu64\libc-musl.a(__int_vsprintf.o)
 .xc_stack_usage.hdr
                0x0000000000000000        0xe f:/microchip/xc32/v4.35/bin/bin/../../lib/gcc/pic32mx/8.3.1/../../../../pic32mx/lib/fpu64\libc-musl.a(__int_vsprintf.o)
 .note.GNU-stack
                0x0000000000000000        0x0 f:/microchip/xc32/v4.35/bin/bin/../../lib/gcc/pic32mx/8.3.1/../../../../pic32mx/lib/fpu64\libc-musl.a(__int_vsprintf.o)
 .text          0x0000000000000000        0x0 f:/microchip/xc32/v4.35/bin/bin/../../lib/gcc/pic32mx/8.3.1/../../../../pic32mx/lib/fpu64\libc-musl.a(__cvt_u.o)
 .data          0x0000000000000000        0x0 f:/microchip/xc32/v4.35/bin/bin/../../lib/gcc/pic32mx/8.3.1/../../../../pic32mx/lib/fpu64\libc-musl.a(__cvt_u.o)
 .bss           0x0000000000000000        0x0 f:/microchip/xc32/v4.35/bin/bin/../../lib/gcc/pic32mx/8.3.1/../../../../pic32mx/lib/fpu64\libc-musl.a(__cvt_u.o)
 .reginfo       0x0000000000000000       0x18 f:/microchip/xc32/v4.35/bin/bin/../../lib/gcc/pic32mx/8.3.1/../../../../pic32mx/lib/fpu64\libc-musl.a(__cvt_u.o)
 .MIPS.abiflags
                0x0000000000000000       0x18 f:/microchip/xc32/v4.35/bin/bin/../../lib/gcc/pic32mx/8.3.1/../../../../pic32mx/lib/fpu64\libc-musl.a(__cvt_u.o)
 .xc_stack_usage
                0x0000000000000000       0x15 f:/microchip/xc32/v4.35/bin/bin/../../lib/gcc/pic32mx/8.3.1/../../../../pic32mx/lib/fpu64\libc-musl.a(__cvt_u.o)
 .xc_stack_usage.hdr
                0x0000000000000000        0xe f:/microchip/xc32/v4.35/bin/bin/../../lib/gcc/pic32mx/8.3.1/../../../../pic32mx/lib/fpu64\libc-musl.a(__cvt_u.o)
 .note.GNU-stack
                0x0000000000000000        0x0 f:/microchip/xc32/v4.35/bin/bin/../../lib/gcc/pic32mx/8.3.1/../../../../pic32mx/lib/fpu64\libc-musl.a(__cvt_u.o)
 .text          0x0000000000000000        0x0 f:/microchip/xc32/v4.35/bin/bin/../../lib/gcc/pic32mx/8.3.1/../../../../pic32mx/lib/fpu64\libc-musl.a(__pop_float.o)
 .data          0x0000000000000000        0x0 f:/microchip/xc32/v4.35/bin/bin/../../lib/gcc/pic32mx/8.3.1/../../../../pic32mx/lib/fpu64\libc-musl.a(__pop_float.o)
 .bss           0x0000000000000000        0x0 f:/microchip/xc32/v4.35/bin/bin/../../lib/gcc/pic32mx/8.3.1/../../../../pic32mx/lib/fpu64\libc-musl.a(__pop_float.o)
 .reginfo       0x0000000000000000       0x18 f:/microchip/xc32/v4.35/bin/bin/../../lib/gcc/pic32mx/8.3.1/../../../../pic32mx/lib/fpu64\libc-musl.a(__pop_float.o)
 .MIPS.abiflags
                0x0000000000000000       0x18 f:/microchip/xc32/v4.35/bin/bin/../../lib/gcc/pic32mx/8.3.1/../../../../pic32mx/lib/fpu64\libc-musl.a(__pop_float.o)
 .xc_stack_usage
                0x0000000000000000       0x19 f:/microchip/xc32/v4.35/bin/bin/../../lib/gcc/pic32mx/8.3.1/../../../../pic32mx/lib/fpu64\libc-musl.a(__pop_float.o)
 .xc_stack_usage.hdr
                0x0000000000000000        0xe f:/microchip/xc32/v4.35/bin/bin/../../lib/gcc/pic32mx/8.3.1/../../../../pic32mx/lib/fpu64\libc-musl.a(__pop_float.o)
 .note.GNU-stack
                0x0000000000000000        0x0 f:/microchip/xc32/v4.35/bin/bin/../../lib/gcc/pic32mx/8.3.1/../../../../pic32mx/lib/fpu64\libc-musl.a(__pop_float.o)
 .text          0x0000000000000000        0x0 f:/microchip/xc32/v4.35/bin/bin/../../lib/gcc/pic32mx/8.3.1/../../../../pic32mx/lib/fpu64\libc-musl.a(__int_vsnprintf.o)
 .data          0x0000000000000000        0x0 f:/microchip/xc32/v4.35/bin/bin/../../lib/gcc/pic32mx/8.3.1/../../../../pic32mx/lib/fpu64\libc-musl.a(__int_vsnprintf.o)
 .bss           0x0000000000000000        0x0 f:/microchip/xc32/v4.35/bin/bin/../../lib/gcc/pic32mx/8.3.1/../../../../pic32mx/lib/fpu64\libc-musl.a(__int_vsnprintf.o)
 .reginfo       0x0000000000000000       0x18 f:/microchip/xc32/v4.35/bin/bin/../../lib/gcc/pic32mx/8.3.1/../../../../pic32mx/lib/fpu64\libc-musl.a(__int_vsnprintf.o)
 .MIPS.abiflags
                0x0000000000000000       0x18 f:/microchip/xc32/v4.35/bin/bin/../../lib/gcc/pic32mx/8.3.1/../../../../pic32mx/lib/fpu64\libc-musl.a(__int_vsnprintf.o)
 .xc_stack_usage
                0x0000000000000000       0x19 f:/microchip/xc32/v4.35/bin/bin/../../lib/gcc/pic32mx/8.3.1/../../../../pic32mx/lib/fpu64\libc-musl.a(__int_vsnprintf.o)
 .xc_stack_usage.hdr
                0x0000000000000000        0xe f:/microchip/xc32/v4.35/bin/bin/../../lib/gcc/pic32mx/8.3.1/../../../../pic32mx/lib/fpu64\libc-musl.a(__int_vsnprintf.o)
 .note.GNU-stack
                0x0000000000000000        0x0 f:/microchip/xc32/v4.35/bin/bin/../../lib/gcc/pic32mx/8.3.1/../../../../pic32mx/lib/fpu64\libc-musl.a(__int_vsnprintf.o)
 .text          0x0000000000000000        0x0 f:/microchip/xc32/v4.35/bin/bin/../../lib/gcc/pic32mx/8.3.1/../../../../pic32mx/lib/fpu64\libc-musl.a(__int_vfprintf.o)
 .data          0x0000000000000000        0x0 f:/microchip/xc32/v4.35/bin/bin/../../lib/gcc/pic32mx/8.3.1/../../../../pic32mx/lib/fpu64\libc-musl.a(__int_vfprintf.o)
 .bss           0x0000000000000000        0x0 f:/microchip/xc32/v4.35/bin/bin/../../lib/gcc/pic32mx/8.3.1/../../../../pic32mx/lib/fpu64\libc-musl.a(__int_vfprintf.o)
 .reginfo       0x0000000000000000       0x18 f:/microchip/xc32/v4.35/bin/bin/../../lib/gcc/pic32mx/8.3.1/../../../../pic32mx/lib/fpu64\libc-musl.a(__int_vfprintf.o)
 .MIPS.abiflags
                0x0000000000000000       0x18 f:/microchip/xc32/v4.35/bin/bin/../../lib/gcc/pic32mx/8.3.1/../../../../pic32mx/lib/fpu64\libc-musl.a(__int_vfprintf.o)
 .xc_stack_usage
                0x0000000000000000       0x18 f:/microchip/xc32/v4.35/bin/bin/../../lib/gcc/pic32mx/8.3.1/../../../../pic32mx/lib/fpu64\libc-musl.a(__int_vfprintf.o)
 .xc_stack_usage.hdr
                0x0000000000000000        0xe f:/microchip/xc32/v4.35/bin/bin/../../lib/gcc/pic32mx/8.3.1/../../../../pic32mx/lib/fpu64\libc-musl.a(__int_vfprintf.o)
 .note.GNU-stack
                0x0000000000000000        0x0 f:/microchip/xc32/v4.35/bin/bin/../../lib/gcc/pic32mx/8.3.1/../../../../pic32mx/lib/fpu64\libc-musl.a(__int_vfprintf.o)
 .data          0x0000000000000000        0x0 f:/microchip/xc32/v4.35/bin/bin/../../lib/gcc/pic32mx/8.3.1/fpu64\libgcc.a(_udivdi3.o)
 .bss           0x0000000000000000        0x0 f:/microchip/xc32/v4.35/bin/bin/../../lib/gcc/pic32mx/8.3.1/fpu64\libgcc.a(_udivdi3.o)
 .reginfo       0x0000000000000000       0x18 f:/microchip/xc32/v4.35/bin/bin/../../lib/gcc/pic32mx/8.3.1/fpu64\libgcc.a(_udivdi3.o)
 .MIPS.abiflags
                0x0000000000000000       0x18 f:/microchip/xc32/v4.35/bin/bin/../../lib/gcc/pic32mx/8.3.1/fpu64\libgcc.a(_udivdi3.o)
 .xc_stack_usage
                0x0000000000000000       0x17 f:/microchip/xc32/v4.35/bin/bin/../../lib/gcc/pic32mx/8.3.1/fpu64\libgcc.a(_udivdi3.o)
 .xc_stack_usage.hdr
                0x0000000000000000        0xe f:/microchip/xc32/v4.35/bin/bin/../../lib/gcc/pic32mx/8.3.1/fpu64\libgcc.a(_udivdi3.o)
 .data          0x0000000000000000        0x0 f:/microchip/xc32/v4.35/bin/bin/../../lib/gcc/pic32mx/8.3.1/fpu64\libgcc.a(_umoddi3.o)
 .bss           0x0000000000000000        0x0 f:/microchip/xc32/v4.35/bin/bin/../../lib/gcc/pic32mx/8.3.1/fpu64\libgcc.a(_umoddi3.o)
 .reginfo       0x0000000000000000       0x18 f:/microchip/xc32/v4.35/bin/bin/../../lib/gcc/pic32mx/8.3.1/fpu64\libgcc.a(_umoddi3.o)
 .MIPS.abiflags
                0x0000000000000000       0x18 f:/microchip/xc32/v4.35/bin/bin/../../lib/gcc/pic32mx/8.3.1/fpu64\libgcc.a(_umoddi3.o)
 .xc_stack_usage
                0x0000000000000000       0x17 f:/microchip/xc32/v4.35/bin/bin/../../lib/gcc/pic32mx/8.3.1/fpu64\libgcc.a(_umoddi3.o)
 .xc_stack_usage.hdr
                0x0000000000000000        0xe f:/microchip/xc32/v4.35/bin/bin/../../lib/gcc/pic32mx/8.3.1/fpu64\libgcc.a(_umoddi3.o)
 .text          0x0000000000000000        0x0 f:/microchip/xc32/v4.35/bin/bin/../../lib/gcc/pic32mx/8.3.1/../../../../pic32mx/lib/fpu64\libpic32.a(errno.o)
 .data          0x0000000000000000        0x0 f:/microchip/xc32/v4.35/bin/bin/../../lib/gcc/pic32mx/8.3.1/../../../../pic32mx/lib/fpu64\libpic32.a(errno.o)
 .bss           0x0000000000000000        0x0 f:/microchip/xc32/v4.35/bin/bin/../../lib/gcc/pic32mx/8.3.1/../../../../pic32mx/lib/fpu64\libpic32.a(errno.o)
 .reginfo       0x0000000000000000       0x18 f:/microchip/xc32/v4.35/bin/bin/../../lib/gcc/pic32mx/8.3.1/../../../../pic32mx/lib/fpu64\libpic32.a(errno.o)
 .MIPS.abiflags
                0x0000000000000000       0x18 f:/microchip/xc32/v4.35/bin/bin/../../lib/gcc/pic32mx/8.3.1/../../../../pic32mx/lib/fpu64\libpic32.a(errno.o)
 .xc_stack_usage.hdr
                0x0000000000000000        0xe f:/microchip/xc32/v4.35/bin/bin/../../lib/gcc/pic32mx/8.3.1/../../../../pic32mx/lib/fpu64\libpic32.a(errno.o)
 .data          0x0000000000000000        0x0 f:/microchip/xc32/v4.35/bin/bin/../../lib/gcc/pic32mx/8.3.1/../../../../pic32mx/lib/fpu64\libpic32.a(pic32_data_init_clear.o)
 .bss           0x0000000000000000        0x0 f:/microchip/xc32/v4.35/bin/bin/../../lib/gcc/pic32mx/8.3.1/../../../../pic32mx/lib/fpu64\libpic32.a(pic32_data_init_clear.o)
 .reginfo       0x0000000000000000       0x18 f:/microchip/xc32/v4.35/bin/bin/../../lib/gcc/pic32mx/8.3.1/../../../../pic32mx/lib/fpu64\libpic32.a(pic32_data_init_clear.o)
 .MIPS.abiflags
                0x0000000000000000       0x18 f:/microchip/xc32/v4.35/bin/bin/../../lib/gcc/pic32mx/8.3.1/../../../../pic32mx/lib/fpu64\libpic32.a(pic32_data_init_clear.o)
 .xc_stack_usage.hdr
                0x0000000000000000        0xe f:/microchip/xc32/v4.35/bin/bin/../../lib/gcc/pic32mx/8.3.1/../../../../pic32mx/lib/fpu64\libpic32.a(pic32_data_init_clear.o)
 .xc_stack_usage
                0x0000000000000000       0x1b f:/microchip/xc32/v4.35/bin/bin/../../lib/gcc/pic32mx/8.3.1/../../../../pic32mx/lib/fpu64\libpic32.a(pic32_data_init_clear.o)
 .data          0x0000000000000000        0x0 f:/microchip/xc32/v4.35/bin/bin/../../lib/gcc/pic32mx/8.3.1/../../../../pic32mx/lib/fpu64\libpic32.a(pic32_data_init_copy.o)
 .bss           0x0000000000000000        0x0 f:/microchip/xc32/v4.35/bin/bin/../../lib/gcc/pic32mx/8.3.1/../../../../pic32mx/lib/fpu64\libpic32.a(pic32_data_init_copy.o)
 .reginfo       0x0000000000000000       0x18 f:/microchip/xc32/v4.35/bin/bin/../../lib/gcc/pic32mx/8.3.1/../../../../pic32mx/lib/fpu64\libpic32.a(pic32_data_init_copy.o)
 .MIPS.abiflags
                0x0000000000000000       0x18 f:/microchip/xc32/v4.35/bin/bin/../../lib/gcc/pic32mx/8.3.1/../../../../pic32mx/lib/fpu64\libpic32.a(pic32_data_init_copy.o)
 .xc_stack_usage.hdr
                0x0000000000000000        0xe f:/microchip/xc32/v4.35/bin/bin/../../lib/gcc/pic32mx/8.3.1/../../../../pic32mx/lib/fpu64\libpic32.a(pic32_data_init_copy.o)
 .xc_stack_usage
                0x0000000000000000       0x1a f:/microchip/xc32/v4.35/bin/bin/../../lib/gcc/pic32mx/8.3.1/../../../../pic32mx/lib/fpu64\libpic32.a(pic32_data_init_copy.o)

Memory Configuration

Name             Origin             Length             Attributes
kseg0_program_mem 0x000000009d000000 0x0000000000080000 xr
kseg0_boot_mem   0x000000009fc004b0 0x0000000000000000
kseg1_boot_mem   0x00000000bfc00000 0x0000000000000480
kseg1_boot_mem_4B0 0x00000000bfc004b0 0x000000000000fa50
config_BFC0FF40  0x00000000bfc0ff40 0x0000000000000004
config_BFC0FF44  0x00000000bfc0ff44 0x0000000000000004
config_BFC0FF48  0x00000000bfc0ff48 0x0000000000000004
config_BFC0FF4C  0x00000000bfc0ff4c 0x0000000000000004
config_BFC0FF50  0x00000000bfc0ff50 0x0000000000000004
config_BFC0FF54  0x00000000bfc0ff54 0x0000000000000004
config_BFC0FF58  0x00000000bfc0ff58 0x0000000000000004
config_BFC0FF5C  0x00000000bfc0ff5c 0x0000000000000004
config_BFC0FF60  0x00000000bfc0ff60 0x0000000000000004
config_BFC0FF64  0x00000000bfc0ff64 0x0000000000000004
config_BFC0FF68  0x00000000bfc0ff68 0x0000000000000004
config_BFC0FF6C  0x00000000bfc0ff6c 0x0000000000000004
config_BFC0FF70  0x00000000bfc0ff70 0x0000000000000004
config_BFC0FF74  0x00000000bfc0ff74 0x0000000000000004
config_BFC0FF78  0x00000000bfc0ff78 0x0000000000000004
config_BFC0FF7C  0x00000000bfc0ff7c 0x0000000000000004
config_BFC0FFC0  0x00000000bfc0ffc0 0x0000000000000004
config_BFC0FFC4  0x00000000bfc0ffc4 0x0000000000000004
config_BFC0FFC8  0x00000000bfc0ffc8 0x0000000000000004
config_BFC0FFCC  0x00000000bfc0ffcc 0x0000000000000004
config_BFC0FFD0  0x00000000bfc0ffd0 0x0000000000000004
config_BFC0FFD4  0x00000000bfc0ffd4 0x0000000000000004
config_BFC0FFD8  0x00000000bfc0ffd8 0x0000000000000004
config_BFC0FFDC  0x00000000bfc0ffdc 0x0000000000000004
config_BFC0FFE0  0x00000000bfc0ffe0 0x0000000000000004
config_BFC0FFE4  0x00000000bfc0ffe4 0x0000000000000004
config_BFC0FFE8  0x00000000bfc0ffe8 0x0000000000000004
config_BFC0FFEC  0x00000000bfc0ffec 0x0000000000000004
config_BFC0FFF0  0x00000000bfc0fff0 0x0000000000000004
config_BFC0FFF4  0x00000000bfc0fff4 0x0000000000000004
config_BFC0FFF8  0x00000000bfc0fff8 0x0000000000000004
config_BFC0FFFC  0x00000000bfc0fffc 0x0000000000000004
lowerbootaliaslastpage 0x00000000bfc10000 0x0000000000004000
upperbootalias   0x00000000bfc20000 0x000000000000ff00
config_BFC2FF40  0x00000000bfc2ff40 0x0000000000000004
config_BFC2FF44  0x00000000bfc2ff44 0x0000000000000004
config_BFC2FF48  0x00000000bfc2ff48 0x0000000000000004
config_BFC2FF4C  0x00000000bfc2ff4c 0x0000000000000004
config_BFC2FF50  0x00000000bfc2ff50 0x0000000000000004
config_BFC2FF54  0x00000000bfc2ff54 0x0000000000000004
config_BFC2FF58  0x00000000bfc2ff58 0x0000000000000004
config_BFC2FF5C  0x00000000bfc2ff5c 0x0000000000000004
config_BFC2FF60  0x00000000bfc2ff60 0x0000000000000004
config_BFC2FF64  0x00000000bfc2ff64 0x0000000000000004
config_BFC2FF68  0x00000000bfc2ff68 0x0000000000000004
config_BFC2FF6C  0x00000000bfc2ff6c 0x0000000000000004
config_BFC2FF70  0x00000000bfc2ff70 0x0000000000000004
config_BFC2FF74  0x00000000bfc2ff74 0x0000000000000004
config_BFC2FF78  0x00000000bfc2ff78 0x0000000000000004
config_BFC2FF7C  0x00000000bfc2ff7c 0x0000000000000004
config_BFC2FFC0  0x00000000bfc2ffc0 0x0000000000000004
config_BFC2FFC4  0x00000000bfc2ffc4 0x0000000000000004
config_BFC2FFC8  0x00000000bfc2ffc8 0x0000000000000004
config_BFC2FFCC  0x00000000bfc2ffcc 0x0000000000000004
config_BFC2FFD0  0x00000000bfc2ffd0 0x0000000000000004
config_BFC2FFD4  0x00000000bfc2ffd4 0x0000000000000004
config_BFC2FFD8  0x00000000bfc2ffd8 0x0000000000000004
config_BFC2FFDC  0x00000000bfc2ffdc 0x0000000000000004
config_BFC2FFE0  0x00000000bfc2ffe0 0x0000000000000004
config_BFC2FFE4  0x00000000bfc2ffe4 0x0000000000000004
config_BFC2FFE8  0x00000000bfc2ffe8 0x0000000000000004
config_BFC2FFEC  0x00000000bfc2ffec 0x0000000000000004
config_BFC2FFF0  0x00000000bfc2fff0 0x0000000000000004
config_BFC2FFF4  0x00000000bfc2fff4 0x0000000000000004
config_BFC2FFF8  0x00000000bfc2fff8 0x0000000000000004
config_BFC2FFFC  0x00000000bfc2fffc 0x0000000000000004
upperbootaliaslastpage 0x00000000bfc30000 0x0000000000004000
boot1            0x00000000bfc40000 0x000000000000ff00
config_BFC4FF40  0x00000000bfc4ff40 0x0000000000000004
config_BFC4FF44  0x00000000bfc4ff44 0x0000000000000004
config_BFC4FF48  0x00000000bfc4ff48 0x0000000000000004
config_BFC4FF4C  0x00000000bfc4ff4c 0x0000000000000004
config_BFC4FF50  0x00000000bfc4ff50 0x0000000000000004
config_BFC4FF54  0x00000000bfc4ff54 0x0000000000000004
config_BFC4FF58  0x00000000bfc4ff58 0x0000000000000004
config_BFC4FF5C  0x00000000bfc4ff5c 0x0000000000000004
config_BFC4FF60  0x00000000bfc4ff60 0x0000000000000004
config_BFC4FF64  0x00000000bfc4ff64 0x0000000000000004
config_BFC4FF68  0x00000000bfc4ff68 0x0000000000000004
config_BFC4FF6C  0x00000000bfc4ff6c 0x0000000000000004
config_BFC4FF70  0x00000000bfc4ff70 0x0000000000000004
config_BFC4FF74  0x00000000bfc4ff74 0x0000000000000004
config_BFC4FF78  0x00000000bfc4ff78 0x0000000000000004
config_BFC4FF7C  0x00000000bfc4ff7c 0x0000000000000004
config_BFC4FFC0  0x00000000bfc4ffc0 0x0000000000000004
config_BFC4FFC4  0x00000000bfc4ffc4 0x0000000000000004
config_BFC4FFC8  0x00000000bfc4ffc8 0x0000000000000004
config_BFC4FFCC  0x00000000bfc4ffcc 0x0000000000000004
config_BFC4FFD0  0x00000000bfc4ffd0 0x0000000000000004
config_BFC4FFD4  0x00000000bfc4ffd4 0x0000000000000004
config_BFC4FFD8  0x00000000bfc4ffd8 0x0000000000000004
config_BFC4FFDC  0x00000000bfc4ffdc 0x0000000000000004
config_BFC4FFE0  0x00000000bfc4ffe0 0x0000000000000004
config_BFC4FFE4  0x00000000bfc4ffe4 0x0000000000000004
config_BFC4FFE8  0x00000000bfc4ffe8 0x0000000000000004
config_BFC4FFEC  0x00000000bfc4ffec 0x0000000000000004
config_BFC4FFF0  0x00000000bfc4fff0 0x0000000000000004
config_BFC4FFF4  0x00000000bfc4fff4 0x0000000000000004
config_BFC4FFF8  0x00000000bfc4fff8 0x0000000000000004
config_BFC4FFFC  0x00000000bfc4fffc 0x0000000000000004
boot1lastpage    0x00000000bfc50000 0x0000000000004000
config_BFC54000  0x00000000bfc54000 0x0000000000000004
config_BFC54004  0x00000000bfc54004 0x0000000000000004
config_BFC54008  0x00000000bfc54008 0x0000000000000004
config_BFC5400C  0x00000000bfc5400c 0x0000000000000004
config_BFC54010  0x00000000bfc54010 0x0000000000000004
config_BFC5401C  0x00000000bfc5401c 0x0000000000000004
config_BFC54020  0x00000000bfc54020 0x0000000000000004
config_BFC54024  0x00000000bfc54024 0x0000000000000004
boot2            0x00000000bfc60000 0x000000000000ff00
config_BFC6FF40  0x00000000bfc6ff40 0x0000000000000004
config_BFC6FF44  0x00000000bfc6ff44 0x0000000000000004
config_BFC6FF48  0x00000000bfc6ff48 0x0000000000000004
config_BFC6FF4C  0x00000000bfc6ff4c 0x0000000000000004
config_BFC6FF50  0x00000000bfc6ff50 0x0000000000000004
config_BFC6FF54  0x00000000bfc6ff54 0x0000000000000004
config_BFC6FF58  0x00000000bfc6ff58 0x0000000000000004
config_BFC6FF5C  0x00000000bfc6ff5c 0x0000000000000004
config_BFC6FF60  0x00000000bfc6ff60 0x0000000000000004
config_BFC6FF64  0x00000000bfc6ff64 0x0000000000000004
config_BFC6FF68  0x00000000bfc6ff68 0x0000000000000004
config_BFC6FF6C  0x00000000bfc6ff6c 0x0000000000000004
config_BFC6FF70  0x00000000bfc6ff70 0x0000000000000004
config_BFC6FF74  0x00000000bfc6ff74 0x0000000000000004
config_BFC6FF78  0x00000000bfc6ff78 0x0000000000000004
config_BFC6FF7C  0x00000000bfc6ff7c 0x0000000000000004
config_BFC6FFC0  0x00000000bfc6ffc0 0x0000000000000004
config_BFC6FFC4  0x00000000bfc6ffc4 0x0000000000000004
config_BFC6FFC8  0x00000000bfc6ffc8 0x0000000000000004
config_BFC6FFCC  0x00000000bfc6ffcc 0x0000000000000004
config_BFC6FFD0  0x00000000bfc6ffd0 0x0000000000000004
config_BFC6FFD4  0x00000000bfc6ffd4 0x0000000000000004
config_BFC6FFD8  0x00000000bfc6ffd8 0x0000000000000004
config_BFC6FFDC  0x00000000bfc6ffdc 0x0000000000000004
config_BFC6FFE0  0x00000000bfc6ffe0 0x0000000000000004
config_BFC6FFE4  0x00000000bfc6ffe4 0x0000000000000004
config_BFC6FFE8  0x00000000bfc6ffe8 0x0000000000000004
config_BFC6FFEC  0x00000000bfc6ffec 0x0000000000000004
config_BFC6FFF0  0x00000000bfc6fff0 0x0000000000000004
config_BFC6FFF4  0x00000000bfc6fff4 0x0000000000000004
config_BFC6FFF8  0x00000000bfc6fff8 0x0000000000000004
config_BFC6FFFC  0x00000000bfc6fffc 0x0000000000000004
boot2lastpage    0x00000000bfc70000 0x0000000000004000
kseg0_data_mem   0x0000000080000000 0x0000000000020000 w !x
sfrs             0x00000000bf800000 0x0000000000100000
configsfrs_BFC0FF40 0x00000000bfc0ff40 0x0000000000000040
configsfrs_BFC0FFC0 0x00000000bfc0ffc0 0x0000000000000040
configsfrs_BFC2FF40 0x00000000bfc2ff40 0x0000000000000040
configsfrs_BFC2FFC0 0x00000000bfc2ffc0 0x0000000000000040
configsfrs_BFC4FF40 0x00000000bfc4ff40 0x0000000000000040
configsfrs_BFC4FFC0 0x00000000bfc4ffc0 0x0000000000000040
configsfrs_BFC54000 0x00000000bfc54000 0x0000000000000020
configsfrs_BFC6FF40 0x00000000bfc6ff40 0x0000000000000040
configsfrs_BFC6FFC0 0x00000000bfc6ffc0 0x0000000000000040
kseg2_sqi_data_mem 0x00000000d0000000 0x0000000004000000
kseg3_sqi_data_mem 0x00000000f0000000 0x0000000004000000
*default*        0x0000000000000000 0xffffffffffffffff

Linker script and memory map

LOAD f:/microchip/xc32/v4.35/bin/bin/../../lib/gcc/pic32mx/8.3.1/../../../../pic32mx/lib/fpu64\debug-exception-return.o
LOAD build/default/production/_ext/60165520/plib_clk.o
LOAD build/default/production/_ext/1249264884/plib_coretimer.o
LOAD build/default/production/_ext/1865161661/plib_dmac.o
LOAD build/default/production/_ext/1865200349/plib_evic.o
LOAD build/default/production/_ext/1865254177/plib_gpio.o
LOAD build/default/production/_ext/513455433/plib_i2c1_master.o
LOAD build/default/production/_ext/60181895/plib_tmr2.o
LOAD build/default/production/_ext/1865657120/plib_uart2.o
LOAD build/default/production/_ext/163028504/xc32_monitor.o
LOAD build/default/production/_ext/1171490990/initialization.o
LOAD build/default/production/_ext/1171490990/interrupts.o
LOAD build/default/production/_ext/1171490990/exceptions.o
LOAD build/default/production/_ext/1360937237/main.o
LOAD build/default/production/_ext/1360937237/bme280_driver.o
                0x0000000000000001                __MPLAB_BUILD = 0x1
                0x0000000000000400                PROVIDE (_min_stack_size = 0x400)
START GROUP
LOAD vector_offset_init.o
END GROUP
                0x0000000000000001                PROVIDE (_vector_spacing = 0x1)
                0x000000009d000000                PROVIDE (_ebase_address = 0x9d000000)
                0x00000000bfc00000                _RESET_ADDR = 0xbfc00000
                0x00000000bfc00380                _BEV_EXCPT_ADDR = 0xbfc00380
                0x00000000bfc00480                _DBG_EXCPT_ADDR = 0xbfc00480
                0x000000009d000000                _SIMPLE_TLB_REFILL_EXCPT_ADDR = (_ebase_address + 0x0)
                0x000000009d000100                _CACHE_ERR_EXCPT_ADDR = (_ebase_address + 0x100)
                0x000000009d000180                _GEN_EXCPT_ADDR = (_ebase_address + 0x180)

.config_BFC0FF40
 *(.config_BFC0FF40)

.config_BFC0FF44
 *(.config_BFC0FF44)

.config_BFC0FF48
 *(.config_BFC0FF48)

.config_BFC0FF4C
 *(.config_BFC0FF4C)

.config_BFC0FF50
 *(.config_BFC0FF50)

.config_BFC0FF54
 *(.config_BFC0FF54)

.config_BFC0FF58
 *(.config_BFC0FF58)

.config_BFC0FF5C
 *(.config_BFC0FF5C)

.config_BFC0FF60
 *(.config_BFC0FF60)

.config_BFC0FF64
 *(.config_BFC0FF64)

.config_BFC0FF68
 *(.config_BFC0FF68)

.config_BFC0FF6C
 *(.config_BFC0FF6C)

.config_BFC0FF70
 *(.config_BFC0FF70)

.config_BFC0FF74
 *(.config_BFC0FF74)

.config_BFC0FF78
 *(.config_BFC0FF78)

.config_BFC0FF7C
 *(.config_BFC0FF7C)

.config_BFC0FFC0
 *(.config_BFC0FFC0)

.config_BFC0FFC4
 *(.config_BFC0FFC4)

.config_BFC0FFC8
 *(.config_BFC0FFC8)

.config_BFC0FFCC
 *(.config_BFC0FFCC)

.config_BFC0FFD0
 *(.config_BFC0FFD0)

.config_BFC0FFD4
 *(.config_BFC0FFD4)

.config_BFC0FFD8
 *(.config_BFC0FFD8)

.config_BFC0FFDC
 *(.config_BFC0FFDC)

.config_BFC0FFE0
 *(.config_BFC0FFE0)

.config_BFC0FFE4
 *(.config_BFC0FFE4)

.config_BFC0FFE8
 *(.config_BFC0FFE8)

.config_BFC0FFEC
 *(.config_BFC0FFEC)

.config_BFC0FFF0
 *(.config_BFC0FFF0)

.config_BFC0FFF4
 *(.config_BFC0FFF4)

.config_BFC0FFF8
 *(.config_BFC0FFF8)

.config_BFC0FFFC
 *(.config_BFC0FFFC)

.config_BFC2FF40
 *(.config_BFC2FF40)

.config_BFC2FF44
 *(.config_BFC2FF44)

.config_BFC2FF48
 *(.config_BFC2FF48)

.config_BFC2FF4C
 *(.config_BFC2FF4C)

.config_BFC2FF50
 *(.config_BFC2FF50)

.config_BFC2FF54
 *(.config_BFC2FF54)

.config_BFC2FF58
 *(.config_BFC2FF58)

.config_BFC2FF5C
 *(.config_BFC2FF5C)

.config_BFC2FF60
 *(.config_BFC2FF60)

.config_BFC2FF64
 *(.config_BFC2FF64)

.config_BFC2FF68
 *(.config_BFC2FF68)

.config_BFC2FF6C
 *(.config_BFC2FF6C)

.config_BFC2FF70
 *(.config_BFC2FF70)

.config_BFC2FF74
 *(.config_BFC2FF74)

.config_BFC2FF78
 *(.config_BFC2FF78)

.config_BFC2FF7C
 *(.config_BFC2FF7C)

.config_BFC2FFC0
 *(.config_BFC2FFC0)

.config_BFC2FFC4
 *(.config_BFC2FFC4)

.config_BFC2FFC8
 *(.config_BFC2FFC8)

.config_BFC2FFCC
 *(.config_BFC2FFCC)

.config_BFC2FFD0
 *(.config_BFC2FFD0)

.config_BFC2FFD4
 *(.config_BFC2FFD4)

.config_BFC2FFD8
 *(.config_BFC2FFD8)

.config_BFC2FFDC
 *(.config_BFC2FFDC)

.config_BFC2FFE0
 *(.config_BFC2FFE0)

.config_BFC2FFE4
 *(.config_BFC2FFE4)

.config_BFC2FFE8
 *(.config_BFC2FFE8)

.config_BFC2FFEC
 *(.config_BFC2FFEC)

.config_BFC2FFF0
 *(.config_BFC2FFF0)

.config_BFC2FFF4
 *(.config_BFC2FFF4)

.config_BFC2FFF8
 *(.config_BFC2FFF8)

.config_BFC2FFFC
 *(.config_BFC2FFFC)

.config_BFC4FF40
 *(.config_BFC4FF40)

.config_BFC4FF44
 *(.config_BFC4FF44)

.config_BFC4FF48
 *(.config_BFC4FF48)

.config_BFC4FF4C
 *(.config_BFC4FF4C)

.config_BFC4FF50
 *(.config_BFC4FF50)

.config_BFC4FF54
 *(.config_BFC4FF54)

.config_BFC4FF58
 *(.config_BFC4FF58)

.config_BFC4FF5C
 *(.config_BFC4FF5C)

.config_BFC4FF60
 *(.config_BFC4FF60)

.config_BFC4FF64
 *(.config_BFC4FF64)

.config_BFC4FF68
 *(.config_BFC4FF68)

.config_BFC4FF6C
 *(.config_BFC4FF6C)

.config_BFC4FF70
 *(.config_BFC4FF70)

.config_BFC4FF74
 *(.config_BFC4FF74)

.config_BFC4FF78
 *(.config_BFC4FF78)

.config_BFC4FF7C
 *(.config_BFC4FF7C)

.config_BFC4FFC0
 *(.config_BFC4FFC0)

.config_BFC4FFC4
 *(.config_BFC4FFC4)

.config_BFC4FFC8
 *(.config_BFC4FFC8)

.config_BFC4FFCC
 *(.config_BFC4FFCC)

.config_BFC4FFD0
 *(.config_BFC4FFD0)

.config_BFC4FFD4
 *(.config_BFC4FFD4)

.config_BFC4FFD8
 *(.config_BFC4FFD8)

.config_BFC4FFDC
 *(.config_BFC4FFDC)

.config_BFC4FFE0
 *(.config_BFC4FFE0)

.config_BFC4FFE4
 *(.config_BFC4FFE4)

.config_BFC4FFE8
 *(.config_BFC4FFE8)

.config_BFC4FFEC
 *(.config_BFC4FFEC)

.config_BFC4FFF0
 *(.config_BFC4FFF0)

.config_BFC4FFF4
 *(.config_BFC4FFF4)

.config_BFC4FFF8
 *(.config_BFC4FFF8)

.config_BFC4FFFC
 *(.config_BFC4FFFC)

.config_BFC54000
 *(.config_BFC54000)

.config_BFC54004
 *(.config_BFC54004)

.config_BFC54008
 *(.config_BFC54008)

.config_BFC5400C
 *(.config_BFC5400C)

.config_BFC54010
 *(.config_BFC54010)

.config_BFC5401C
 *(.config_BFC5401C)

.config_BFC54020
 *(.config_BFC54020)

.config_BFC54024
 *(.config_BFC54024)

.config_BFC6FF40
 *(.config_BFC6FF40)

.config_BFC6FF44
 *(.config_BFC6FF44)

.config_BFC6FF48
 *(.config_BFC6FF48)

.config_BFC6FF4C
 *(.config_BFC6FF4C)

.config_BFC6FF50
 *(.config_BFC6FF50)

.config_BFC6FF54
 *(.config_BFC6FF54)

.config_BFC6FF58
 *(.config_BFC6FF58)

.config_BFC6FF5C
 *(.config_BFC6FF5C)

.config_BFC6FF60
 *(.config_BFC6FF60)

.config_BFC6FF64
 *(.config_BFC6FF64)

.config_BFC6FF68
 *(.config_BFC6FF68)

.config_BFC6FF6C
 *(.config_BFC6FF6C)

.config_BFC6FF70
 *(.config_BFC6FF70)

.config_BFC6FF74
 *(.config_BFC6FF74)

.config_BFC6FF78
 *(.config_BFC6FF78)

.config_BFC6FF7C
 *(.config_BFC6FF7C)

.config_BFC6FFC0
 *(.config_BFC6FFC0)

.config_BFC6FFC4
 *(.config_BFC6FFC4)

.config_BFC6FFC8
 *(.config_BFC6FFC8)

.config_BFC6FFCC
 *(.config_BFC6FFCC)

.config_BFC6FFD0
 *(.config_BFC6FFD0)

.config_BFC6FFD4
 *(.config_BFC6FFD4)

.config_BFC6FFD8
 *(.config_BFC6FFD8)

.config_BFC6FFDC
 *(.config_BFC6FFDC)

.config_BFC6FFE0
 *(.config_BFC6FFE0)

.config_BFC6FFE4
 *(.config_BFC6FFE4)

.config_BFC6FFE8
 *(.config_BFC6FFE8)

.config_BFC6FFEC
 *(.config_BFC6FFEC)

.config_BFC6FFF0
 *(.config_BFC6FFF0)

.config_BFC6FFF4
 *(.config_BFC6FFF4)

.config_BFC6FFF8
 *(.config_BFC6FFF8)

.config_BFC6FFFC
 *(.config_BFC6FFFC)

.reset          0x00000000bfc00000      0x1c4
 *(.reset)
 .reset         0x00000000bfc00000       0x18 C:\Users\huope\AppData\Local\Temp\cc8UKOfV.o
                0x00000000bfc00000                _reset
 *(.reset.startup)
 .reset.startup
                0x00000000bfc00018      0x1ac C:\Users\huope\AppData\Local\Temp\cc8UKOfV.o
                0x00000000bfc00018                _startup

.bev_excpt      0x00000000bfc00380       0x10
 *(.bev_handler)
 .bev_handler   0x00000000bfc00380       0x10 C:\Users\huope\AppData\Local\Temp\cc8UKOfV.o

.cache_init     0x00000000bfc004b0      0x1c0
 *(.cache_init)
 *(.cache_init.*)
 .cache_init.cache
                0x00000000bfc004b0       0xc0 f:/microchip/xc32/v4.35/bin/bin/../../lib/gcc/pic32mx/8.3.1/../../../../pic32mx/lib/fpu64\libpic32.a(pic32_init_cache.o)
 .cache_init.pic32_init_cache
                0x00000000bfc00570      0x100 f:/microchip/xc32/v4.35/bin/bin/../../lib/gcc/pic32mx/8.3.1/../../../../pic32mx/lib/fpu64\libpic32.a(pic32_init_cache.o)
                0x00000000bfc00570                __pic32_init_cache

.simple_tlb_refill_excpt
                0x000000009d000000       0x10
 *(.simple_tlb_refill_vector)
 .simple_tlb_refill_vector
                0x000000009d000000       0x10 C:\Users\huope\AppData\Local\Temp\cc8UKOfV.o

.cache_err_excpt
                0x000000009d000100       0x10
 *(.cache_err_vector)
 .cache_err_vector
                0x000000009d000100       0x10 C:\Users\huope\AppData\Local\Temp\cc8UKOfV.o

.app_excpt      0x000000009d000180       0x10
 *(.gen_handler)
 .gen_handler   0x000000009d000180       0x10 C:\Users\huope\AppData\Local\Temp\cc8UKOfV.o

.vectors        0x000000009d000200       0x88
                0x000000009d000200                . = ALIGN (0x4)
                0x0000000000000240                __vector_offset_0 = DEFINED (__vector_dispatch_0)?(. - _ebase_address):__vector_offset_default
 *(.vector_0)
                0x000000009d000200                . = ALIGN (0x4)
                0x0000000000000240                __vector_offset_1 = DEFINED (__vector_dispatch_1)?(. - _ebase_address):__vector_offset_default
 *(.vector_1)
                0x000000009d000200                . = ALIGN (0x4)
                0x0000000000000240                __vector_offset_2 = DEFINED (__vector_dispatch_2)?(. - _ebase_address):__vector_offset_default
 *(.vector_2)
                0x000000009d000200                . = ALIGN (0x4)
                0x0000000000000240                __vector_offset_3 = DEFINED (__vector_dispatch_3)?(. - _ebase_address):__vector_offset_default
 *(.vector_3)
                0x000000009d000200                . = ALIGN (0x4)
                0x0000000000000240                __vector_offset_4 = DEFINED (__vector_dispatch_4)?(. - _ebase_address):__vector_offset_default
 *(.vector_4)
                0x000000009d000200                . = ALIGN (0x4)
                0x0000000000000240                __vector_offset_5 = DEFINED (__vector_dispatch_5)?(. - _ebase_address):__vector_offset_default
 *(.vector_5)
                0x000000009d000200                . = ALIGN (0x4)
                0x0000000000000240                __vector_offset_6 = DEFINED (__vector_dispatch_6)?(. - _ebase_address):__vector_offset_default
 *(.vector_6)
                0x000000009d000200                . = ALIGN (0x4)
                0x0000000000000240                __vector_offset_7 = DEFINED (__vector_dispatch_7)?(. - _ebase_address):__vector_offset_default
 *(.vector_7)
                0x000000009d000200                . = ALIGN (0x4)
                0x0000000000000240                __vector_offset_8 = DEFINED (__vector_dispatch_8)?(. - _ebase_address):__vector_offset_default
 *(.vector_8)
                0x000000009d000200                . = ALIGN (0x4)
                0x0000000000000200                __vector_offset_9 = DEFINED (__vector_dispatch_9)?(. - _ebase_address):__vector_offset_default
 *(.vector_9)
 .vector_9      0x000000009d000200        0x8 build/default/production/_ext/1171490990/interrupts.o
                0x000000009d000200                __vector_dispatch_9
                0x000000009d000208                . = ALIGN (0x4)
                0x0000000000000240                __vector_offset_10 = DEFINED (__vector_dispatch_10)?(. - _ebase_address):__vector_offset_default
 *(.vector_10)
                0x000000009d000208                . = ALIGN (0x4)
                0x0000000000000240                __vector_offset_11 = DEFINED (__vector_dispatch_11)?(. - _ebase_address):__vector_offset_default
 *(.vector_11)
                0x000000009d000208                . = ALIGN (0x4)
                0x0000000000000240                __vector_offset_12 = DEFINED (__vector_dispatch_12)?(. - _ebase_address):__vector_offset_default
 *(.vector_12)
                0x000000009d000208                . = ALIGN (0x4)
                0x0000000000000240                __vector_offset_13 = DEFINED (__vector_dispatch_13)?(. - _ebase_address):__vector_offset_default
 *(.vector_13)
                0x000000009d000208                . = ALIGN (0x4)
                0x0000000000000240                __vector_offset_14 = DEFINED (__vector_dispatch_14)?(. - _ebase_address):__vector_offset_default
 *(.vector_14)
                0x000000009d000208                . = ALIGN (0x4)
                0x0000000000000240                __vector_offset_15 = DEFINED (__vector_dispatch_15)?(. - _ebase_address):__vector_offset_default
 *(.vector_15)
                0x000000009d000208                . = ALIGN (0x4)
                0x0000000000000240                __vector_offset_16 = DEFINED (__vector_dispatch_16)?(. - _ebase_address):__vector_offset_default
 *(.vector_16)
                0x000000009d000208                . = ALIGN (0x4)
                0x0000000000000240                __vector_offset_17 = DEFINED (__vector_dispatch_17)?(. - _ebase_address):__vector_offset_default
 *(.vector_17)
                0x000000009d000208                . = ALIGN (0x4)
                0x0000000000000240                __vector_offset_18 = DEFINED (__vector_dispatch_18)?(. - _ebase_address):__vector_offset_default
 *(.vector_18)
                0x000000009d000208                . = ALIGN (0x4)
                0x0000000000000240                __vector_offset_19 = DEFINED (__vector_dispatch_19)?(. - _ebase_address):__vector_offset_default
 *(.vector_19)
                0x000000009d000208                . = ALIGN (0x4)
                0x0000000000000240                __vector_offset_20 = DEFINED (__vector_dispatch_20)?(. - _ebase_address):__vector_offset_default
 *(.vector_20)
                0x000000009d000208                . = ALIGN (0x4)
                0x0000000000000240                __vector_offset_21 = DEFINED (__vector_dispatch_21)?(. - _ebase_address):__vector_offset_default
 *(.vector_21)
                0x000000009d000208                . = ALIGN (0x4)
                0x0000000000000240                __vector_offset_22 = DEFINED (__vector_dispatch_22)?(. - _ebase_address):__vector_offset_default
 *(.vector_22)
                0x000000009d000208                . = ALIGN (0x4)
                0x0000000000000240                __vector_offset_23 = DEFINED (__vector_dispatch_23)?(. - _ebase_address):__vector_offset_default
 *(.vector_23)
                0x000000009d000208                . = ALIGN (0x4)
                0x0000000000000240                __vector_offset_24 = DEFINED (__vector_dispatch_24)?(. - _ebase_address):__vector_offset_default
 *(.vector_24)
                0x000000009d000208                . = ALIGN (0x4)
                0x0000000000000240                __vector_offset_25 = DEFINED (__vector_dispatch_25)?(. - _ebase_address):__vector_offset_default
 *(.vector_25)
                0x000000009d000208                . = ALIGN (0x4)
                0x0000000000000240                __vector_offset_26 = DEFINED (__vector_dispatch_26)?(. - _ebase_address):__vector_offset_default
 *(.vector_26)
                0x000000009d000208                . = ALIGN (0x4)
                0x0000000000000240                __vector_offset_27 = DEFINED (__vector_dispatch_27)?(. - _ebase_address):__vector_offset_default
 *(.vector_27)
                0x000000009d000208                . = ALIGN (0x4)
                0x0000000000000240                __vector_offset_28 = DEFINED (__vector_dispatch_28)?(. - _ebase_address):__vector_offset_default
 *(.vector_28)
                0x000000009d000208                . = ALIGN (0x4)
                0x0000000000000240                __vector_offset_29 = DEFINED (__vector_dispatch_29)?(. - _ebase_address):__vector_offset_default
 *(.vector_29)
                0x000000009d000208                . = ALIGN (0x4)
                0x0000000000000240                __vector_offset_30 = DEFINED (__vector_dispatch_30)?(. - _ebase_address):__vector_offset_default
 *(.vector_30)
                0x000000009d000208                . = ALIGN (0x4)
                0x0000000000000240                __vector_offset_31 = DEFINED (__vector_dispatch_31)?(. - _ebase_address):__vector_offset_default
 *(.vector_31)
                0x000000009d000208                . = ALIGN (0x4)
                0x0000000000000240                __vector_offset_32 = DEFINED (__vector_dispatch_32)?(. - _ebase_address):__vector_offset_default
 *(.vector_32)
                0x000000009d000208                . = ALIGN (0x4)
                0x0000000000000240                __vector_offset_33 = DEFINED (__vector_dispatch_33)?(. - _ebase_address):__vector_offset_default
 *(.vector_33)
                0x000000009d000208                . = ALIGN (0x4)
                0x0000000000000240                __vector_offset_34 = DEFINED (__vector_dispatch_34)?(. - _ebase_address):__vector_offset_default
 *(.vector_34)
                0x000000009d000208                . = ALIGN (0x4)
                0x0000000000000240                __vector_offset_35 = DEFINED (__vector_dispatch_35)?(. - _ebase_address):__vector_offset_default
 *(.vector_35)
                0x000000009d000208                . = ALIGN (0x4)
                0x0000000000000240                __vector_offset_36 = DEFINED (__vector_dispatch_36)?(. - _ebase_address):__vector_offset_default
 *(.vector_36)
                0x000000009d000208                . = ALIGN (0x4)
                0x0000000000000240                __vector_offset_37 = DEFINED (__vector_dispatch_37)?(. - _ebase_address):__vector_offset_default
 *(.vector_37)
                0x000000009d000208                . = ALIGN (0x4)
                0x0000000000000240                __vector_offset_38 = DEFINED (__vector_dispatch_38)?(. - _ebase_address):__vector_offset_default
 *(.vector_38)
                0x000000009d000208                . = ALIGN (0x4)
                0x0000000000000240                __vector_offset_39 = DEFINED (__vector_dispatch_39)?(. - _ebase_address):__vector_offset_default
 *(.vector_39)
                0x000000009d000208                . = ALIGN (0x4)
                0x0000000000000240                __vector_offset_40 = DEFINED (__vector_dispatch_40)?(. - _ebase_address):__vector_offset_default
 *(.vector_40)
                0x000000009d000208                . = ALIGN (0x4)
                0x0000000000000240                __vector_offset_41 = DEFINED (__vector_dispatch_41)?(. - _ebase_address):__vector_offset_default
 *(.vector_41)
                0x000000009d000208                . = ALIGN (0x4)
                0x0000000000000240                __vector_offset_42 = DEFINED (__vector_dispatch_42)?(. - _ebase_address):__vector_offset_default
 *(.vector_42)
                0x000000009d000208                . = ALIGN (0x4)
                0x0000000000000240                __vector_offset_43 = DEFINED (__vector_dispatch_43)?(. - _ebase_address):__vector_offset_default
 *(.vector_43)
                0x000000009d000208                . = ALIGN (0x4)
                0x0000000000000240                __vector_offset_44 = DEFINED (__vector_dispatch_44)?(. - _ebase_address):__vector_offset_default
 *(.vector_44)
                0x000000009d000208                . = ALIGN (0x4)
                0x0000000000000240                __vector_offset_45 = DEFINED (__vector_dispatch_45)?(. - _ebase_address):__vector_offset_default
 *(.vector_45)
                0x000000009d000208                . = ALIGN (0x4)
                0x0000000000000240                __vector_offset_46 = DEFINED (__vector_dispatch_46)?(. - _ebase_address):__vector_offset_default
 *(.vector_46)
                0x000000009d000208                . = ALIGN (0x4)
                0x0000000000000240                __vector_offset_47 = DEFINED (__vector_dispatch_47)?(. - _ebase_address):__vector_offset_default
 *(.vector_47)
                0x000000009d000208                . = ALIGN (0x4)
                0x0000000000000240                __vector_offset_48 = DEFINED (__vector_dispatch_48)?(. - _ebase_address):__vector_offset_default
 *(.vector_48)
                0x000000009d000208                . = ALIGN (0x4)
                0x0000000000000240                __vector_offset_49 = DEFINED (__vector_dispatch_49)?(. - _ebase_address):__vector_offset_default
 *(.vector_49)
                0x000000009d000208                . = ALIGN (0x4)
                0x0000000000000240                __vector_offset_50 = DEFINED (__vector_dispatch_50)?(. - _ebase_address):__vector_offset_default
 *(.vector_50)
                0x000000009d000208                . = ALIGN (0x4)
                0x0000000000000240                __vector_offset_51 = DEFINED (__vector_dispatch_51)?(. - _ebase_address):__vector_offset_default
 *(.vector_51)
                0x000000009d000208                . = ALIGN (0x4)
                0x0000000000000240                __vector_offset_52 = DEFINED (__vector_dispatch_52)?(. - _ebase_address):__vector_offset_default
 *(.vector_52)
                0x000000009d000208                . = ALIGN (0x4)
                0x0000000000000240                __vector_offset_53 = DEFINED (__vector_dispatch_53)?(. - _ebase_address):__vector_offset_default
 *(.vector_53)
                0x000000009d000208                . = ALIGN (0x4)
                0x0000000000000240                __vector_offset_54 = DEFINED (__vector_dispatch_54)?(. - _ebase_address):__vector_offset_default
 *(.vector_54)
                0x000000009d000208                . = ALIGN (0x4)
                0x0000000000000240                __vector_offset_55 = DEFINED (__vector_dispatch_55)?(. - _ebase_address):__vector_offset_default
 *(.vector_55)
                0x000000009d000208                . = ALIGN (0x4)
                0x0000000000000240                __vector_offset_56 = DEFINED (__vector_dispatch_56)?(. - _ebase_address):__vector_offset_default
 *(.vector_56)
                0x000000009d000208                . = ALIGN (0x4)
                0x0000000000000240                __vector_offset_57 = DEFINED (__vector_dispatch_57)?(. - _ebase_address):__vector_offset_default
 *(.vector_57)
                0x000000009d000208                . = ALIGN (0x4)
                0x0000000000000240                __vector_offset_58 = DEFINED (__vector_dispatch_58)?(. - _ebase_address):__vector_offset_default
 *(.vector_58)
                0x000000009d000208                . = ALIGN (0x4)
                0x0000000000000240                __vector_offset_59 = DEFINED (__vector_dispatch_59)?(. - _ebase_address):__vector_offset_default
 *(.vector_59)
                0x000000009d000208                . = ALIGN (0x4)
                0x0000000000000240                __vector_offset_60 = DEFINED (__vector_dispatch_60)?(. - _ebase_address):__vector_offset_default
 *(.vector_60)
                0x000000009d000208                . = ALIGN (0x4)
                0x0000000000000240                __vector_offset_61 = DEFINED (__vector_dispatch_61)?(. - _ebase_address):__vector_offset_default
 *(.vector_61)
                0x000000009d000208                . = ALIGN (0x4)
                0x0000000000000240                __vector_offset_62 = DEFINED (__vector_dispatch_62)?(. - _ebase_address):__vector_offset_default
 *(.vector_62)
                0x000000009d000208                . = ALIGN (0x4)
                0x0000000000000240                __vector_offset_63 = DEFINED (__vector_dispatch_63)?(. - _ebase_address):__vector_offset_default
 *(.vector_63)
                0x000000009d000208                . = ALIGN (0x4)
                0x0000000000000240                __vector_offset_64 = DEFINED (__vector_dispatch_64)?(. - _ebase_address):__vector_offset_default
 *(.vector_64)
                0x000000009d000208                . = ALIGN (0x4)
                0x0000000000000240                __vector_offset_65 = DEFINED (__vector_dispatch_65)?(. - _ebase_address):__vector_offset_default
 *(.vector_65)
                0x000000009d000208                . = ALIGN (0x4)
                0x0000000000000240                __vector_offset_66 = DEFINED (__vector_dispatch_66)?(. - _ebase_address):__vector_offset_default
 *(.vector_66)
                0x000000009d000208                . = ALIGN (0x4)
                0x0000000000000240                __vector_offset_67 = DEFINED (__vector_dispatch_67)?(. - _ebase_address):__vector_offset_default
 *(.vector_67)
                0x000000009d000208                . = ALIGN (0x4)
                0x0000000000000240                __vector_offset_68 = DEFINED (__vector_dispatch_68)?(. - _ebase_address):__vector_offset_default
 *(.vector_68)
                0x000000009d000208                . = ALIGN (0x4)
                0x0000000000000240                __vector_offset_69 = DEFINED (__vector_dispatch_69)?(. - _ebase_address):__vector_offset_default
 *(.vector_69)
                0x000000009d000208                . = ALIGN (0x4)
                0x0000000000000240                __vector_offset_70 = DEFINED (__vector_dispatch_70)?(. - _ebase_address):__vector_offset_default
 *(.vector_70)
                0x000000009d000208                . = ALIGN (0x4)
                0x0000000000000240                __vector_offset_71 = DEFINED (__vector_dispatch_71)?(. - _ebase_address):__vector_offset_default
 *(.vector_71)
                0x000000009d000208                . = ALIGN (0x4)
                0x0000000000000240                __vector_offset_72 = DEFINED (__vector_dispatch_72)?(. - _ebase_address):__vector_offset_default
 *(.vector_72)
                0x000000009d000208                . = ALIGN (0x4)
                0x0000000000000240                __vector_offset_73 = DEFINED (__vector_dispatch_73)?(. - _ebase_address):__vector_offset_default
 *(.vector_73)
                0x000000009d000208                . = ALIGN (0x4)
                0x0000000000000240                __vector_offset_74 = DEFINED (__vector_dispatch_74)?(. - _ebase_address):__vector_offset_default
 *(.vector_74)
                0x000000009d000208                . = ALIGN (0x4)
                0x0000000000000240                __vector_offset_75 = DEFINED (__vector_dispatch_75)?(. - _ebase_address):__vector_offset_default
 *(.vector_75)
                0x000000009d000208                . = ALIGN (0x4)
                0x0000000000000240                __vector_offset_76 = DEFINED (__vector_dispatch_76)?(. - _ebase_address):__vector_offset_default
 *(.vector_76)
                0x000000009d000208                . = ALIGN (0x4)
                0x0000000000000240                __vector_offset_77 = DEFINED (__vector_dispatch_77)?(. - _ebase_address):__vector_offset_default
 *(.vector_77)
                0x000000009d000208                . = ALIGN (0x4)
                0x0000000000000240                __vector_offset_78 = DEFINED (__vector_dispatch_78)?(. - _ebase_address):__vector_offset_default
 *(.vector_78)
                0x000000009d000208                . = ALIGN (0x4)
                0x0000000000000240                __vector_offset_79 = DEFINED (__vector_dispatch_79)?(. - _ebase_address):__vector_offset_default
 *(.vector_79)
                0x000000009d000208                . = ALIGN (0x4)
                0x0000000000000240                __vector_offset_80 = DEFINED (__vector_dispatch_80)?(. - _ebase_address):__vector_offset_default
 *(.vector_80)
                0x000000009d000208                . = ALIGN (0x4)
                0x0000000000000240                __vector_offset_81 = DEFINED (__vector_dispatch_81)?(. - _ebase_address):__vector_offset_default
 *(.vector_81)
                0x000000009d000208                . = ALIGN (0x4)
                0x0000000000000240                __vector_offset_82 = DEFINED (__vector_dispatch_82)?(. - _ebase_address):__vector_offset_default
 *(.vector_82)
                0x000000009d000208                . = ALIGN (0x4)
                0x0000000000000240                __vector_offset_83 = DEFINED (__vector_dispatch_83)?(. - _ebase_address):__vector_offset_default
 *(.vector_83)
                0x000000009d000208                . = ALIGN (0x4)
                0x0000000000000240                __vector_offset_84 = DEFINED (__vector_dispatch_84)?(. - _ebase_address):__vector_offset_default
 *(.vector_84)
                0x000000009d000208                . = ALIGN (0x4)
                0x0000000000000240                __vector_offset_85 = DEFINED (__vector_dispatch_85)?(. - _ebase_address):__vector_offset_default
 *(.vector_85)
                0x000000009d000208                . = ALIGN (0x4)
                0x0000000000000240                __vector_offset_86 = DEFINED (__vector_dispatch_86)?(. - _ebase_address):__vector_offset_default
 *(.vector_86)
                0x000000009d000208                . = ALIGN (0x4)
                0x0000000000000240                __vector_offset_87 = DEFINED (__vector_dispatch_87)?(. - _ebase_address):__vector_offset_default
 *(.vector_87)
                0x000000009d000208                . = ALIGN (0x4)
                0x0000000000000240                __vector_offset_88 = DEFINED (__vector_dispatch_88)?(. - _ebase_address):__vector_offset_default
 *(.vector_88)
                0x000000009d000208                . = ALIGN (0x4)
                0x0000000000000240                __vector_offset_89 = DEFINED (__vector_dispatch_89)?(. - _ebase_address):__vector_offset_default
 *(.vector_89)
                0x000000009d000208                . = ALIGN (0x4)
                0x0000000000000240                __vector_offset_90 = DEFINED (__vector_dispatch_90)?(. - _ebase_address):__vector_offset_default
 *(.vector_90)
                0x000000009d000208                . = ALIGN (0x4)
                0x0000000000000240                __vector_offset_91 = DEFINED (__vector_dispatch_91)?(. - _ebase_address):__vector_offset_default
 *(.vector_91)
                0x000000009d000208                . = ALIGN (0x4)
                0x0000000000000240                __vector_offset_92 = DEFINED (__vector_dispatch_92)?(. - _ebase_address):__vector_offset_default
 *(.vector_92)
                0x000000009d000208                . = ALIGN (0x4)
                0x0000000000000240                __vector_offset_93 = DEFINED (__vector_dispatch_93)?(. - _ebase_address):__vector_offset_default
 *(.vector_93)
                0x000000009d000208                . = ALIGN (0x4)
                0x0000000000000240                __vector_offset_94 = DEFINED (__vector_dispatch_94)?(. - _ebase_address):__vector_offset_default
 *(.vector_94)
                0x000000009d000208                . = ALIGN (0x4)
                0x0000000000000240                __vector_offset_95 = DEFINED (__vector_dispatch_95)?(. - _ebase_address):__vector_offset_default
 *(.vector_95)
                0x000000009d000208                . = ALIGN (0x4)
                0x0000000000000240                __vector_offset_96 = DEFINED (__vector_dispatch_96)?(. - _ebase_address):__vector_offset_default
 *(.vector_96)
                0x000000009d000208                . = ALIGN (0x4)
                0x0000000000000240                __vector_offset_97 = DEFINED (__vector_dispatch_97)?(. - _ebase_address):__vector_offset_default
 *(.vector_97)
                0x000000009d000208                . = ALIGN (0x4)
                0x0000000000000240                __vector_offset_98 = DEFINED (__vector_dispatch_98)?(. - _ebase_address):__vector_offset_default
 *(.vector_98)
                0x000000009d000208                . = ALIGN (0x4)
                0x0000000000000240                __vector_offset_99 = DEFINED (__vector_dispatch_99)?(. - _ebase_address):__vector_offset_default
 *(.vector_99)
                0x000000009d000208                . = ALIGN (0x4)
                0x0000000000000240                __vector_offset_100 = DEFINED (__vector_dispatch_100)?(. - _ebase_address):__vector_offset_default
 *(.vector_100)
                0x000000009d000208                . = ALIGN (0x4)
                0x0000000000000240                __vector_offset_101 = DEFINED (__vector_dispatch_101)?(. - _ebase_address):__vector_offset_default
 *(.vector_101)
                0x000000009d000208                . = ALIGN (0x4)
                0x0000000000000240                __vector_offset_102 = DEFINED (__vector_dispatch_102)?(. - _ebase_address):__vector_offset_default
 *(.vector_102)
                0x000000009d000208                . = ALIGN (0x4)
                0x0000000000000240                __vector_offset_103 = DEFINED (__vector_dispatch_103)?(. - _ebase_address):__vector_offset_default
 *(.vector_103)
                0x000000009d000208                . = ALIGN (0x4)
                0x0000000000000240                __vector_offset_104 = DEFINED (__vector_dispatch_104)?(. - _ebase_address):__vector_offset_default
 *(.vector_104)
                0x000000009d000208                . = ALIGN (0x4)
                0x0000000000000240                __vector_offset_105 = DEFINED (__vector_dispatch_105)?(. - _ebase_address):__vector_offset_default
 *(.vector_105)
                0x000000009d000208                . = ALIGN (0x4)
                0x0000000000000240                __vector_offset_106 = DEFINED (__vector_dispatch_106)?(. - _ebase_address):__vector_offset_default
 *(.vector_106)
                0x000000009d000208                . = ALIGN (0x4)
                0x0000000000000240                __vector_offset_107 = DEFINED (__vector_dispatch_107)?(. - _ebase_address):__vector_offset_default
 *(.vector_107)
                0x000000009d000208                . = ALIGN (0x4)
                0x0000000000000240                __vector_offset_108 = DEFINED (__vector_dispatch_108)?(. - _ebase_address):__vector_offset_default
 *(.vector_108)
                0x000000009d000208                . = ALIGN (0x4)
                0x0000000000000240                __vector_offset_109 = DEFINED (__vector_dispatch_109)?(. - _ebase_address):__vector_offset_default
 *(.vector_109)
                0x000000009d000208                . = ALIGN (0x4)
                0x0000000000000240                __vector_offset_110 = DEFINED (__vector_dispatch_110)?(. - _ebase_address):__vector_offset_default
 *(.vector_110)
                0x000000009d000208                . = ALIGN (0x4)
                0x0000000000000240                __vector_offset_111 = DEFINED (__vector_dispatch_111)?(. - _ebase_address):__vector_offset_default
 *(.vector_111)
                0x000000009d000208                . = ALIGN (0x4)
                0x0000000000000240                __vector_offset_112 = DEFINED (__vector_dispatch_112)?(. - _ebase_address):__vector_offset_default
 *(.vector_112)
                0x000000009d000208                . = ALIGN (0x4)
                0x0000000000000240                __vector_offset_113 = DEFINED (__vector_dispatch_113)?(. - _ebase_address):__vector_offset_default
 *(.vector_113)
                0x000000009d000208                . = ALIGN (0x4)
                0x0000000000000240                __vector_offset_114 = DEFINED (__vector_dispatch_114)?(. - _ebase_address):__vector_offset_default
 *(.vector_114)
                0x000000009d000208                . = ALIGN (0x4)
                0x0000000000000208                __vector_offset_115 = DEFINED (__vector_dispatch_115)?(. - _ebase_address):__vector_offset_default
 *(.vector_115)
 .vector_115    0x000000009d000208        0x8 build/default/production/_ext/1171490990/interrupts.o
                0x000000009d000208                __vector_dispatch_115
                0x000000009d000210                . = ALIGN (0x4)
                0x0000000000000240                __vector_offset_116 = DEFINED (__vector_dispatch_116)?(. - _ebase_address):__vector_offset_default
 *(.vector_116)
                0x000000009d000210                . = ALIGN (0x4)
                0x0000000000000210                __vector_offset_117 = DEFINED (__vector_dispatch_117)?(. - _ebase_address):__vector_offset_default
 *(.vector_117)
 .vector_117    0x000000009d000210        0x8 build/default/production/_ext/1171490990/interrupts.o
                0x000000009d000210                __vector_dispatch_117
                0x000000009d000218                . = ALIGN (0x4)
                0x0000000000000240                __vector_offset_118 = DEFINED (__vector_dispatch_118)?(. - _ebase_address):__vector_offset_default
 *(.vector_118)
                0x000000009d000218                . = ALIGN (0x4)
                0x0000000000000218                __vector_offset_119 = DEFINED (__vector_dispatch_119)?(. - _ebase_address):__vector_offset_default
 *(.vector_119)
 .vector_119    0x000000009d000218        0x8 build/default/production/_ext/1171490990/interrupts.o
                0x000000009d000218                __vector_dispatch_119
                0x000000009d000220                . = ALIGN (0x4)
                0x0000000000000240                __vector_offset_120 = DEFINED (__vector_dispatch_120)?(. - _ebase_address):__vector_offset_default
 *(.vector_120)
                0x000000009d000220                . = ALIGN (0x4)
                0x0000000000000240                __vector_offset_121 = DEFINED (__vector_dispatch_121)?(. - _ebase_address):__vector_offset_default
 *(.vector_121)
                0x000000009d000220                . = ALIGN (0x4)
                0x0000000000000240                __vector_offset_122 = DEFINED (__vector_dispatch_122)?(. - _ebase_address):__vector_offset_default
 *(.vector_122)
                0x000000009d000220                . = ALIGN (0x4)
                0x0000000000000240                __vector_offset_123 = DEFINED (__vector_dispatch_123)?(. - _ebase_address):__vector_offset_default
 *(.vector_123)
                0x000000009d000220                . = ALIGN (0x4)
                0x0000000000000240                __vector_offset_124 = DEFINED (__vector_dispatch_124)?(. - _ebase_address):__vector_offset_default
 *(.vector_124)
                0x000000009d000220                . = ALIGN (0x4)
                0x0000000000000240                __vector_offset_125 = DEFINED (__vector_dispatch_125)?(. - _ebase_address):__vector_offset_default
 *(.vector_125)
                0x000000009d000220                . = ALIGN (0x4)
                0x0000000000000240                __vector_offset_126 = DEFINED (__vector_dispatch_126)?(. - _ebase_address):__vector_offset_default
 *(.vector_126)
                0x000000009d000220                . = ALIGN (0x4)
                0x0000000000000240                __vector_offset_127 = DEFINED (__vector_dispatch_127)?(. - _ebase_address):__vector_offset_default
 *(.vector_127)
                0x000000009d000220                . = ALIGN (0x4)
                0x0000000000000240                __vector_offset_128 = DEFINED (__vector_dispatch_128)?(. - _ebase_address):__vector_offset_default
 *(.vector_128)
                0x000000009d000220                . = ALIGN (0x4)
                0x0000000000000240                __vector_offset_129 = DEFINED (__vector_dispatch_129)?(. - _ebase_address):__vector_offset_default
 *(.vector_129)
                0x000000009d000220                . = ALIGN (0x4)
                0x0000000000000240                __vector_offset_130 = DEFINED (__vector_dispatch_130)?(. - _ebase_address):__vector_offset_default
 *(.vector_130)
                0x000000009d000220                . = ALIGN (0x4)
                0x0000000000000240                __vector_offset_131 = DEFINED (__vector_dispatch_131)?(. - _ebase_address):__vector_offset_default
 *(.vector_131)
                0x000000009d000220                . = ALIGN (0x4)
                0x0000000000000240                __vector_offset_132 = DEFINED (__vector_dispatch_132)?(. - _ebase_address):__vector_offset_default
 *(.vector_132)
                0x000000009d000220                . = ALIGN (0x4)
                0x0000000000000240                __vector_offset_133 = DEFINED (__vector_dispatch_133)?(. - _ebase_address):__vector_offset_default
 *(.vector_133)
                0x000000009d000220                . = ALIGN (0x4)
                0x0000000000000220                __vector_offset_134 = DEFINED (__vector_dispatch_134)?(. - _ebase_address):__vector_offset_default
 *(.vector_134)
 .vector_134    0x000000009d000220        0x8 build/default/production/_ext/1171490990/interrupts.o
                0x000000009d000220                __vector_dispatch_134
                0x000000009d000228                . = ALIGN (0x4)
                0x0000000000000240                __vector_offset_135 = DEFINED (__vector_dispatch_135)?(. - _ebase_address):__vector_offset_default
 *(.vector_135)
                0x000000009d000228                . = ALIGN (0x4)
                0x0000000000000240                __vector_offset_136 = DEFINED (__vector_dispatch_136)?(. - _ebase_address):__vector_offset_default
 *(.vector_136)
                0x000000009d000228                . = ALIGN (0x4)
                0x0000000000000240                __vector_offset_137 = DEFINED (__vector_dispatch_137)?(. - _ebase_address):__vector_offset_default
 *(.vector_137)
                0x000000009d000228                . = ALIGN (0x4)
                0x0000000000000240                __vector_offset_138 = DEFINED (__vector_dispatch_138)?(. - _ebase_address):__vector_offset_default
 *(.vector_138)
                0x000000009d000228                . = ALIGN (0x4)
                0x0000000000000240                __vector_offset_139 = DEFINED (__vector_dispatch_139)?(. - _ebase_address):__vector_offset_default
 *(.vector_139)
                0x000000009d000228                . = ALIGN (0x4)
                0x0000000000000240                __vector_offset_140 = DEFINED (__vector_dispatch_140)?(. - _ebase_address):__vector_offset_default
 *(.vector_140)
                0x000000009d000228                . = ALIGN (0x4)
                0x0000000000000240                __vector_offset_141 = DEFINED (__vector_dispatch_141)?(. - _ebase_address):__vector_offset_default
 *(.vector_141)
                0x000000009d000228                . = ALIGN (0x4)
                0x0000000000000240                __vector_offset_142 = DEFINED (__vector_dispatch_142)?(. - _ebase_address):__vector_offset_default
 *(.vector_142)
                0x000000009d000228                . = ALIGN (0x4)
                0x0000000000000240                __vector_offset_143 = DEFINED (__vector_dispatch_143)?(. - _ebase_address):__vector_offset_default
 *(.vector_143)
                0x000000009d000228                . = ALIGN (0x4)
                0x0000000000000240                __vector_offset_144 = DEFINED (__vector_dispatch_144)?(. - _ebase_address):__vector_offset_default
 *(.vector_144)
                0x000000009d000228                . = ALIGN (0x4)
                0x0000000000000228                __vector_offset_145 = DEFINED (__vector_dispatch_145)?(. - _ebase_address):__vector_offset_default
 *(.vector_145)
 .vector_145    0x000000009d000228        0x8 build/default/production/_ext/1171490990/interrupts.o
                0x000000009d000228                __vector_dispatch_145
                0x000000009d000230                . = ALIGN (0x4)
                0x0000000000000230                __vector_offset_146 = DEFINED (__vector_dispatch_146)?(. - _ebase_address):__vector_offset_default
 *(.vector_146)
 .vector_146    0x000000009d000230        0x8 build/default/production/_ext/1171490990/interrupts.o
                0x000000009d000230                __vector_dispatch_146
                0x000000009d000238                . = ALIGN (0x4)
                0x0000000000000238                __vector_offset_147 = DEFINED (__vector_dispatch_147)?(. - _ebase_address):__vector_offset_default
 *(.vector_147)
 .vector_147    0x000000009d000238        0x8 build/default/production/_ext/1171490990/interrupts.o
                0x000000009d000238                __vector_dispatch_147
                0x000000009d000240                . = ALIGN (0x4)
                0x0000000000000240                __vector_offset_148 = DEFINED (__vector_dispatch_148)?(. - _ebase_address):__vector_offset_default
 *(.vector_148)
                0x000000009d000240                . = ALIGN (0x4)
                0x0000000000000240                __vector_offset_149 = DEFINED (__vector_dispatch_149)?(. - _ebase_address):__vector_offset_default
 *(.vector_149)
                0x000000009d000240                . = ALIGN (0x4)
                0x0000000000000240                __vector_offset_150 = DEFINED (__vector_dispatch_150)?(. - _ebase_address):__vector_offset_default
 *(.vector_150)
                0x000000009d000240                . = ALIGN (0x4)
                0x0000000000000240                __vector_offset_151 = DEFINED (__vector_dispatch_151)?(. - _ebase_address):__vector_offset_default
 *(.vector_151)
                0x000000009d000240                . = ALIGN (0x4)
                0x0000000000000240                __vector_offset_152 = DEFINED (__vector_dispatch_152)?(. - _ebase_address):__vector_offset_default
 *(.vector_152)
                0x000000009d000240                . = ALIGN (0x4)
                0x0000000000000240                __vector_offset_153 = DEFINED (__vector_dispatch_153)?(. - _ebase_address):__vector_offset_default
 *(.vector_153)
                0x000000009d000240                . = ALIGN (0x4)
                0x0000000000000240                __vector_offset_154 = DEFINED (__vector_dispatch_154)?(. - _ebase_address):__vector_offset_default
 *(.vector_154)
                0x000000009d000240                . = ALIGN (0x4)
                0x0000000000000240                __vector_offset_155 = DEFINED (__vector_dispatch_155)?(. - _ebase_address):__vector_offset_default
 *(.vector_155)
                0x000000009d000240                . = ALIGN (0x4)
                0x0000000000000240                __vector_offset_156 = DEFINED (__vector_dispatch_156)?(. - _ebase_address):__vector_offset_default
 *(.vector_156)
                0x000000009d000240                . = ALIGN (0x4)
                0x0000000000000240                __vector_offset_157 = DEFINED (__vector_dispatch_157)?(. - _ebase_address):__vector_offset_default
 *(.vector_157)
                0x000000009d000240                . = ALIGN (0x4)
                0x0000000000000240                __vector_offset_158 = DEFINED (__vector_dispatch_158)?(. - _ebase_address):__vector_offset_default
 *(.vector_158)
                0x000000009d000240                . = ALIGN (0x4)
                0x0000000000000240                __vector_offset_159 = DEFINED (__vector_dispatch_159)?(. - _ebase_address):__vector_offset_default
 *(.vector_159)
                0x000000009d000240                . = ALIGN (0x4)
                0x0000000000000240                __vector_offset_160 = DEFINED (__vector_dispatch_160)?(. - _ebase_address):__vector_offset_default
 *(.vector_160)
                0x000000009d000240                . = ALIGN (0x4)
                0x0000000000000240                __vector_offset_161 = DEFINED (__vector_dispatch_161)?(. - _ebase_address):__vector_offset_default
 *(.vector_161)
                0x000000009d000240                . = ALIGN (0x4)
                0x0000000000000240                __vector_offset_162 = DEFINED (__vector_dispatch_162)?(. - _ebase_address):__vector_offset_default
 *(.vector_162)
                0x000000009d000240                . = ALIGN (0x4)
                0x0000000000000240                __vector_offset_163 = DEFINED (__vector_dispatch_163)?(. - _ebase_address):__vector_offset_default
 *(.vector_163)
                0x000000009d000240                . = ALIGN (0x4)
                0x0000000000000240                __vector_offset_164 = DEFINED (__vector_dispatch_164)?(. - _ebase_address):__vector_offset_default
 *(.vector_164)
                0x000000009d000240                . = ALIGN (0x4)
                0x0000000000000240                __vector_offset_165 = DEFINED (__vector_dispatch_165)?(. - _ebase_address):__vector_offset_default
 *(.vector_165)
                0x000000009d000240                . = ALIGN (0x4)
                0x0000000000000240                __vector_offset_166 = DEFINED (__vector_dispatch_166)?(. - _ebase_address):__vector_offset_default
 *(.vector_166)
                0x000000009d000240                . = ALIGN (0x4)
                0x0000000000000240                __vector_offset_167 = DEFINED (__vector_dispatch_167)?(. - _ebase_address):__vector_offset_default
 *(.vector_167)
                0x000000009d000240                . = ALIGN (0x4)
                0x0000000000000240                __vector_offset_168 = DEFINED (__vector_dispatch_168)?(. - _ebase_address):__vector_offset_default
 *(.vector_168)
                0x000000009d000240                . = ALIGN (0x4)
                0x0000000000000240                __vector_offset_169 = DEFINED (__vector_dispatch_169)?(. - _ebase_address):__vector_offset_default
 *(.vector_169)
                0x000000009d000240                . = ALIGN (0x4)
                0x0000000000000240                __vector_offset_170 = DEFINED (__vector_dispatch_170)?(. - _ebase_address):__vector_offset_default
 *(.vector_170)
                0x000000009d000240                . = ALIGN (0x4)
                0x0000000000000240                __vector_offset_171 = DEFINED (__vector_dispatch_171)?(. - _ebase_address):__vector_offset_default
 *(.vector_171)
                0x000000009d000240                . = ALIGN (0x4)
                0x0000000000000240                __vector_offset_172 = DEFINED (__vector_dispatch_172)?(. - _ebase_address):__vector_offset_default
 *(.vector_172)
                0x000000009d000240                . = ALIGN (0x4)
                0x0000000000000240                __vector_offset_173 = DEFINED (__vector_dispatch_173)?(. - _ebase_address):__vector_offset_default
 *(.vector_173)
                0x000000009d000240                . = ALIGN (0x4)
                0x0000000000000240                __vector_offset_174 = DEFINED (__vector_dispatch_174)?(. - _ebase_address):__vector_offset_default
 *(.vector_174)
                0x000000009d000240                . = ALIGN (0x4)
                0x0000000000000240                __vector_offset_175 = DEFINED (__vector_dispatch_175)?(. - _ebase_address):__vector_offset_default
 *(.vector_175)
                0x000000009d000240                . = ALIGN (0x4)
                0x0000000000000240                __vector_offset_176 = DEFINED (__vector_dispatch_176)?(. - _ebase_address):__vector_offset_default
 *(.vector_176)
                0x000000009d000240                . = ALIGN (0x4)
                0x0000000000000240                __vector_offset_177 = DEFINED (__vector_dispatch_177)?(. - _ebase_address):__vector_offset_default
 *(.vector_177)
                0x000000009d000240                . = ALIGN (0x4)
                0x0000000000000240                __vector_offset_178 = DEFINED (__vector_dispatch_178)?(. - _ebase_address):__vector_offset_default
 *(.vector_178)
                0x000000009d000240                . = ALIGN (0x4)
                0x0000000000000240                __vector_offset_179 = DEFINED (__vector_dispatch_179)?(. - _ebase_address):__vector_offset_default
 *(.vector_179)
                0x000000009d000240                . = ALIGN (0x4)
                0x0000000000000240                __vector_offset_180 = DEFINED (__vector_dispatch_180)?(. - _ebase_address):__vector_offset_default
 *(.vector_180)
                0x000000009d000240                . = ALIGN (0x4)
                0x0000000000000240                __vector_offset_181 = DEFINED (__vector_dispatch_181)?(. - _ebase_address):__vector_offset_default
 *(.vector_181)
                0x000000009d000240                . = ALIGN (0x4)
                0x0000000000000240                __vector_offset_182 = DEFINED (__vector_dispatch_182)?(. - _ebase_address):__vector_offset_default
 *(.vector_182)
                0x000000009d000240                . = ALIGN (0x4)
                0x0000000000000240                __vector_offset_183 = DEFINED (__vector_dispatch_183)?(. - _ebase_address):__vector_offset_default
 *(.vector_183)
                0x000000009d000240                . = ALIGN (0x4)
                0x0000000000000240                __vector_offset_184 = DEFINED (__vector_dispatch_184)?(. - _ebase_address):__vector_offset_default
 *(.vector_184)
                0x000000009d000240                . = ALIGN (0x4)
                0x0000000000000240                __vector_offset_185 = DEFINED (__vector_dispatch_185)?(. - _ebase_address):__vector_offset_default
 *(.vector_185)
                0x000000009d000240                . = ALIGN (0x4)
                0x0000000000000240                __vector_offset_186 = DEFINED (__vector_dispatch_186)?(. - _ebase_address):__vector_offset_default
 *(.vector_186)
                0x000000009d000240                . = ALIGN (0x4)
                0x0000000000000240                __vector_offset_187 = DEFINED (__vector_dispatch_187)?(. - _ebase_address):__vector_offset_default
 *(.vector_187)
                0x000000009d000240                . = ALIGN (0x4)
                0x0000000000000240                __vector_offset_188 = DEFINED (__vector_dispatch_188)?(. - _ebase_address):__vector_offset_default
 *(.vector_188)
                0x000000009d000240                . = ALIGN (0x4)
                0x0000000000000240                __vector_offset_189 = DEFINED (__vector_dispatch_189)?(. - _ebase_address):__vector_offset_default
 *(.vector_189)
                0x000000009d000240                . = ALIGN (0x4)
                0x0000000000000240                __vector_offset_190 = DEFINED (__vector_dispatch_190)?(. - _ebase_address):__vector_offset_default
 *(.vector_190)
                0x000000009d000240                . = ALIGN (0x4)
                0x0000000000000240                __vector_offset_191 = DEFINED (__vector_dispatch_191)?(. - _ebase_address):__vector_offset_default
 *(.vector_191)
                0x000000009d000240                . = ALIGN (0x4)
                0x0000000000000240                __vector_offset_192 = DEFINED (__vector_dispatch_192)?(. - _ebase_address):__vector_offset_default
 *(.vector_192)
                0x000000009d000240                . = ALIGN (0x4)
                0x0000000000000240                __vector_offset_193 = DEFINED (__vector_dispatch_193)?(. - _ebase_address):__vector_offset_default
 *(.vector_193)
                0x000000009d000240                . = ALIGN (0x4)
                0x0000000000000240                __vector_offset_194 = DEFINED (__vector_dispatch_194)?(. - _ebase_address):__vector_offset_default
 *(.vector_194)
                0x000000009d000240                . = ALIGN (0x4)
                0x0000000000000240                __vector_offset_195 = DEFINED (__vector_dispatch_195)?(. - _ebase_address):__vector_offset_default
 *(.vector_195)
                0x000000009d000240                . = ALIGN (0x4)
                0x0000000000000240                __vector_offset_196 = DEFINED (__vector_dispatch_196)?(. - _ebase_address):__vector_offset_default
 *(.vector_196)
                0x000000009d000240                . = ALIGN (0x4)
                0x0000000000000240                __vector_offset_197 = DEFINED (__vector_dispatch_197)?(. - _ebase_address):__vector_offset_default
 *(.vector_197)
                0x000000009d000240                . = ALIGN (0x4)
                0x0000000000000240                __vector_offset_198 = DEFINED (__vector_dispatch_198)?(. - _ebase_address):__vector_offset_default
 *(.vector_198)
                0x000000009d000240                . = ALIGN (0x4)
                0x0000000000000240                __vector_offset_199 = DEFINED (__vector_dispatch_199)?(. - _ebase_address):__vector_offset_default
 *(.vector_199)
                0x000000009d000240                . = ALIGN (0x4)
                0x0000000000000240                __vector_offset_200 = DEFINED (__vector_dispatch_200)?(. - _ebase_address):__vector_offset_default
 *(.vector_200)
                0x000000009d000240                . = ALIGN (0x4)
                0x0000000000000240                __vector_offset_201 = DEFINED (__vector_dispatch_201)?(. - _ebase_address):__vector_offset_default
 *(.vector_201)
                0x000000009d000240                . = ALIGN (0x4)
                0x0000000000000240                __vector_offset_202 = DEFINED (__vector_dispatch_202)?(. - _ebase_address):__vector_offset_default
 *(.vector_202)
                0x000000009d000240                . = ALIGN (0x4)
                0x0000000000000240                __vector_offset_203 = DEFINED (__vector_dispatch_203)?(. - _ebase_address):__vector_offset_default
 *(.vector_203)
                0x000000009d000240                . = ALIGN (0x4)
                0x0000000000000240                __vector_offset_204 = DEFINED (__vector_dispatch_204)?(. - _ebase_address):__vector_offset_default
 *(.vector_204)
                0x000000009d000240                . = ALIGN (0x4)
                0x0000000000000240                __vector_offset_205 = DEFINED (__vector_dispatch_205)?(. - _ebase_address):__vector_offset_default
 *(.vector_205)
                0x000000009d000240                . = ALIGN (0x4)
                0x0000000000000240                __vector_offset_206 = DEFINED (__vector_dispatch_206)?(. - _ebase_address):__vector_offset_default
 *(.vector_206)
                0x000000009d000240                . = ALIGN (0x4)
                0x0000000000000240                __vector_offset_207 = DEFINED (__vector_dispatch_207)?(. - _ebase_address):__vector_offset_default
 *(.vector_207)
                0x000000009d000240                . = ALIGN (0x4)
                0x0000000000000240                __vector_offset_208 = DEFINED (__vector_dispatch_208)?(. - _ebase_address):__vector_offset_default
 *(.vector_208)
                0x000000009d000240                . = ALIGN (0x4)
                0x0000000000000240                __vector_offset_209 = DEFINED (__vector_dispatch_209)?(. - _ebase_address):__vector_offset_default
 *(.vector_209)
                0x000000009d000240                . = ALIGN (0x4)
                0x0000000000000240                __vector_offset_210 = DEFINED (__vector_dispatch_210)?(. - _ebase_address):__vector_offset_default
 *(.vector_210)
                0x000000009d000240                . = ALIGN (0x4)
                0x0000000000000240                __vector_offset_211 = DEFINED (__vector_dispatch_211)?(. - _ebase_address):__vector_offset_default
 *(.vector_211)
                0x000000009d000240                . = ALIGN (0x4)
                0x0000000000000240                __vector_offset_212 = DEFINED (__vector_dispatch_212)?(. - _ebase_address):__vector_offset_default
 *(.vector_212)
                0x000000009d000240                . = ALIGN (0x4)
                0x0000000000000240                __vector_offset_213 = DEFINED (__vector_dispatch_213)?(. - _ebase_address):__vector_offset_default
 *(.vector_213)
                0x000000009d000240                . = ALIGN (0x4)
                0x0000000000000240                __vector_offset_214 = DEFINED (__vector_dispatch_214)?(. - _ebase_address):__vector_offset_default
 *(.vector_214)
                0x000000009d000240                . = ALIGN (0x4)
                0x0000000000000240                __vector_offset_215 = DEFINED (__vector_dispatch_215)?(. - _ebase_address):__vector_offset_default
 *(.vector_215)
                0x000000009d000240                . = ALIGN (0x4)
                0x0000000000000240                __vector_offset_216 = DEFINED (__vector_dispatch_216)?(. - _ebase_address):__vector_offset_default
 *(.vector_216)
                0x000000009d000240                . = ALIGN (0x4)
                0x0000000000000240                __vector_offset_217 = DEFINED (__vector_dispatch_217)?(. - _ebase_address):__vector_offset_default
 *(.vector_217)
                0x000000009d000240                . = ALIGN (0x4)
                0x0000000000000240                __vector_offset_218 = DEFINED (__vector_dispatch_218)?(. - _ebase_address):__vector_offset_default
 *(.vector_218)
                0x000000009d000240                . = ALIGN (0x4)
                0x0000000000000240                __vector_offset_219 = DEFINED (__vector_dispatch_219)?(. - _ebase_address):__vector_offset_default
 *(.vector_219)
                0x000000009d000240                . = ALIGN (0x4)
                0x0000000000000240                __vector_offset_220 = DEFINED (__vector_dispatch_220)?(. - _ebase_address):__vector_offset_default
 *(.vector_220)
                0x000000009d000240                . = ALIGN (0x4)
                0x0000000000000240                __vector_offset_221 = DEFINED (__vector_dispatch_221)?(. - _ebase_address):__vector_offset_default
 *(.vector_221)
                0x000000009d000240                . = ALIGN (0x4)
                0x0000000000000240                __vector_offset_222 = DEFINED (__vector_dispatch_222)?(. - _ebase_address):__vector_offset_default
 *(.vector_222)
                0x000000009d000240                . = ALIGN (0x4)
                0x0000000000000240                __vector_offset_223 = DEFINED (__vector_dispatch_223)?(. - _ebase_address):__vector_offset_default
 *(.vector_223)
                0x000000009d000240                . = ALIGN (0x4)
                0x0000000000000240                __vector_offset_224 = DEFINED (__vector_dispatch_224)?(. - _ebase_address):__vector_offset_default
 *(.vector_224)
                0x000000009d000240                . = ALIGN (0x4)
                0x0000000000000240                __vector_offset_225 = DEFINED (__vector_dispatch_225)?(. - _ebase_address):__vector_offset_default
 *(.vector_225)
                0x000000009d000240                . = ALIGN (0x4)
                0x0000000000000240                __vector_offset_226 = DEFINED (__vector_dispatch_226)?(. - _ebase_address):__vector_offset_default
 *(.vector_226)
                0x000000009d000240                . = ALIGN (0x4)
                0x0000000000000240                __vector_offset_227 = DEFINED (__vector_dispatch_227)?(. - _ebase_address):__vector_offset_default
 *(.vector_227)
                0x000000009d000240                . = ALIGN (0x4)
                0x0000000000000240                __vector_offset_228 = DEFINED (__vector_dispatch_228)?(. - _ebase_address):__vector_offset_default
 *(.vector_228)
                0x000000009d000240                . = ALIGN (0x4)
                0x0000000000000240                __vector_offset_229 = DEFINED (__vector_dispatch_229)?(. - _ebase_address):__vector_offset_default
 *(.vector_229)
                0x000000009d000240                . = ALIGN (0x4)
                0x0000000000000240                __vector_offset_230 = DEFINED (__vector_dispatch_230)?(. - _ebase_address):__vector_offset_default
 *(.vector_230)
                0x000000009d000240                . = ALIGN (0x4)
                0x0000000000000240                __vector_offset_231 = DEFINED (__vector_dispatch_231)?(. - _ebase_address):__vector_offset_default
 *(.vector_231)
                0x000000009d000240                . = ALIGN (0x4)
                0x0000000000000240                __vector_offset_232 = DEFINED (__vector_dispatch_232)?(. - _ebase_address):__vector_offset_default
 *(.vector_232)
                0x000000009d000240                . = ALIGN (0x4)
                0x0000000000000240                __vector_offset_233 = DEFINED (__vector_dispatch_233)?(. - _ebase_address):__vector_offset_default
 *(.vector_233)
                0x000000009d000240                . = ALIGN (0x4)
                0x0000000000000240                __vector_offset_234 = DEFINED (__vector_dispatch_234)?(. - _ebase_address):__vector_offset_default
 *(.vector_234)
                0x000000009d000240                . = ALIGN (0x4)
                0x0000000000000240                __vector_offset_235 = DEFINED (__vector_dispatch_235)?(. - _ebase_address):__vector_offset_default
 *(.vector_235)
                0x000000009d000240                . = ALIGN (0x4)
                0x0000000000000240                __vector_offset_236 = DEFINED (__vector_dispatch_236)?(. - _ebase_address):__vector_offset_default
 *(.vector_236)
                0x000000009d000240                . = ALIGN (0x4)
                0x0000000000000240                __vector_offset_237 = DEFINED (__vector_dispatch_237)?(. - _ebase_address):__vector_offset_default
 *(.vector_237)
                0x000000009d000240                . = ALIGN (0x4)
                0x0000000000000240                __vector_offset_238 = DEFINED (__vector_dispatch_238)?(. - _ebase_address):__vector_offset_default
 *(.vector_238)
                0x000000009d000240                . = ALIGN (0x4)
                0x0000000000000240                __vector_offset_239 = DEFINED (__vector_dispatch_239)?(. - _ebase_address):__vector_offset_default
 *(.vector_239)
                0x000000009d000240                . = ALIGN (0x4)
                0x0000000000000240                __vector_offset_240 = DEFINED (__vector_dispatch_240)?(. - _ebase_address):__vector_offset_default
 *(.vector_240)
                0x000000009d000240                . = ALIGN (0x4)
                0x0000000000000240                __vector_offset_241 = DEFINED (__vector_dispatch_241)?(. - _ebase_address):__vector_offset_default
 *(.vector_241)
                0x000000009d000240                . = ALIGN (0x4)
                0x0000000000000240                __vector_offset_242 = DEFINED (__vector_dispatch_242)?(. - _ebase_address):__vector_offset_default
 *(.vector_242)
                0x000000009d000240                . = ALIGN (0x4)
                0x0000000000000240                __vector_offset_243 = DEFINED (__vector_dispatch_243)?(. - _ebase_address):__vector_offset_default
 *(.vector_243)
                0x000000009d000240                . = ALIGN (0x4)
                0x0000000000000240                __vector_offset_244 = DEFINED (__vector_dispatch_244)?(. - _ebase_address):__vector_offset_default
 *(.vector_244)
                0x000000009d000240                . = ALIGN (0x4)
                0x0000000000000240                __vector_offset_245 = DEFINED (__vector_dispatch_245)?(. - _ebase_address):__vector_offset_default
 *(.vector_245)
                0x000000009d000240                . = ALIGN (0x4)
                0x0000000000000240                __vector_offset_246 = DEFINED (__vector_dispatch_246)?(. - _ebase_address):__vector_offset_default
 *(.vector_246)
                0x000000009d000240                . = ALIGN (0x4)
                0x0000000000000240                __vector_offset_247 = DEFINED (__vector_dispatch_247)?(. - _ebase_address):__vector_offset_default
 *(.vector_247)
                0x000000009d000240                . = ALIGN (0x4)
                0x0000000000000240                __vector_offset_248 = DEFINED (__vector_dispatch_248)?(. - _ebase_address):__vector_offset_default
 *(.vector_248)
                0x000000009d000240                . = ALIGN (0x4)
                0x0000000000000240                __vector_offset_249 = DEFINED (__vector_dispatch_249)?(. - _ebase_address):__vector_offset_default
 *(.vector_249)
                0x000000009d000240                . = ALIGN (0x4)
                0x0000000000000240                __vector_offset_250 = DEFINED (__vector_dispatch_250)?(. - _ebase_address):__vector_offset_default
 *(.vector_250)
                0x000000009d000240                . = ALIGN (0x4)
                0x0000000000000240                __vector_offset_251 = DEFINED (__vector_dispatch_251)?(. - _ebase_address):__vector_offset_default
 *(.vector_251)
                0x000000009d000240                . = ALIGN (0x4)
                0x0000000000000240                __vector_offset_252 = DEFINED (__vector_dispatch_252)?(. - _ebase_address):__vector_offset_default
 *(.vector_252)
                0x000000009d000240                . = ALIGN (0x4)
                0x0000000000000240                __vector_offset_253 = DEFINED (__vector_dispatch_253)?(. - _ebase_address):__vector_offset_default
 *(.vector_253)
                0x000000009d000240                . = ALIGN (0x4)
                0x0000000000000240                __vector_offset_254 = DEFINED (__vector_dispatch_254)?(. - _ebase_address):__vector_offset_default
 *(.vector_254)
                0x000000009d000240                . = ALIGN (0x4)
                0x0000000000000240                __vector_offset_255 = DEFINED (__vector_dispatch_255)?(. - _ebase_address):__vector_offset_default
 *(.vector_255)
                0x000000009d000240                . = ALIGN (0x4)
                0x0000000000000240                __vector_offset_default = (. - _ebase_address)
 *(.vector_default)
 .vector_default
                0x000000009d000240       0x48 f:/microchip/xc32/v4.35/bin/bin/../../lib/gcc/pic32mx/8.3.1/../../../../pic32mx/lib/fpu64\libpic32.a(defaultinterrupt.o)
                0x000000009d000240                _DefaultInterrupt

.startup
 *(.startup)

.text           0x000000009d000288        0x0
 *(.stub .gnu.linkonce.t.*)
 *(.text.*personality*)
 *(.mips16.fn.*)
 *(.mips16.call.*)
 *(.gnu.warning)
                0x000000009d000288                . = ALIGN (0x4)

.init           0x000000009d000288        0x0
 *crti.o(.init)
 *crtbegin.o(.init)
 *(EXCLUDE_FILE(*crtn.o *crtend?.o *crtend.o) .init)
 *crtend.o(.init)
 *crtn.o(.init)
                0x000000009d000288                . = ALIGN (0x4)

.fini           0x000000009d000288        0x0
 *(.fini)
                0x000000009d000288                . = ALIGN (0x4)

.preinit_array  0x000000009d000288        0x0
                [!provide]                        PROVIDE (__preinit_array_start = .)
 *(.preinit_array)
                [!provide]                        PROVIDE (__preinit_array_end = .)
                0x000000009d000288                . = ALIGN (0x4)

.init_array     0x000000009d000288        0x0
                [!provide]                        PROVIDE (__init_array_start = .)
 *(SORT_BY_NAME(.init_array.*))
 *(.init_array)
                [!provide]                        PROVIDE (__init_array_end = .)
                0x000000009d000288                . = ALIGN (0x4)

.fini_array     0x000000009d000288        0x0
                [!provide]                        PROVIDE (__fini_array_start = .)
 *(SORT_BY_NAME(.fini_array.*))
 *(.fini_array)
                [!provide]                        PROVIDE (__fini_array_end = .)
                0x000000009d000288                . = ALIGN (0x4)

.ctors          0x000000009d000288        0x0
 *crtbegin.o(.ctors)
 *crtbegin?.o(.ctors)
 *(EXCLUDE_FILE(*crtend?.o *crtend.o) .ctors)
 *(SORT_BY_NAME(.ctors.*))
 *(.ctors)
                0x000000009d000288                . = ALIGN (0x4)

.dtors          0x000000009d000288        0x0
 *crtbegin.o(.dtors)
 *crtbegin?.o(.dtors)
 *(EXCLUDE_FILE(*crtend?.o *crtend.o) .dtors)
 *(SORT_BY_NAME(.dtors.*))
 *(.dtors)
                0x000000009d000288                . = ALIGN (0x4)

.rodata         0x000000009d000288        0x0
 *(.gnu.linkonce.r.*)
 *(.rodata1)
                0x000000009d000288                . = ALIGN (0x4)

.sdata2         0x000000009d000288        0x0
 *(.sdata2 .sdata2.* .gnu.linkonce.s2.*)
                0x000000009d000288                . = ALIGN (0x4)

.sbss2          0x000000009d000288        0x0
 *(.sbss2 .sbss2.* .gnu.linkonce.sb2.*)
                0x000000009d000288                . = ALIGN (0x4)

.eh_frame_hdr
 *(.eh_frame_hdr)
                0x000000009d000288                . = ALIGN (0x4)

.eh_frame
 *(.eh_frame)
                0x000000009d000288                . = ALIGN (0x4)

.gcc_except_table
 *(.gcc_except_table .gcc_except_table.*)
                0x000000009d000288                . = ALIGN (0x4)

.dbg_data       0x0000000080000000        0x0
                0x0000000080000000                . = (. + DEFINED (_DEBUGGER)?0x200:0x0)
                0x0000000080000000                . = (. + DEFINED (_DEBUGGER)?0x80:0x0)
                0x0000000080000000                . = (. + DEFINED (_DEBUGGER)?0x100:0x0)

.jcr            0x0000000080000000        0x0
 *(.jcr)
                0x0000000080000000                . = ALIGN (0x4)

.eh_frame
 *(.eh_frame)
                0x0000000080000000                . = ALIGN (0x4)

.gcc_except_table
 *(.gcc_except_table .gcc_except_table.*)
                0x0000000080000000                . = ALIGN (0x4)

.persist        0x0000000080000000        0x0
                0x0000000080000000                _persist_begin = .
 *(.persist .persist.*)
                0x0000000080000000                . = ALIGN (0x4)
                0x0000000080000000                _persist_end = .

.data           0x0000000080000000        0x0
 *(.gnu.linkonce.d.*)
 *(.data1)
                0x0000000080000000                . = ALIGN (0x4)
                0x0000000080000000                . = .
                0x0000000080007ff0                _gp = (ALIGN (0x10) + 0x7ff0)

.got            0x0000000080000000        0x0
 *(.got.plt)
 *(.got)
                0x0000000080000000                . = ALIGN (0x4)

.sdata          0x0000000080000000       0x30
                0x0000000080000000                _sdata_begin = .
 *(.sdata .sdata.* .gnu.linkonce.s.*)
 .sdata.compareValue
                0x0000000080000000        0x4 build/default/production/_ext/1249264884/plib_coretimer.o
 .sdata.portNumCb
                0x0000000080000004        0x7 build/default/production/_ext/1865254177/plib_gpio.o
 *fill*         0x000000008000000b        0x1 
 .sdata         0x000000008000000c       0x24 f:/microchip/xc32/v4.35/bin/bin/../../lib/gcc/pic32mx/8.3.1/../../../../pic32mx/lib/fpu64\libpic32.a(pic32_init_cache.o)
                0x000000008000000c                __pic32_icache_size
                0x0000000080000010                __pic32_icache_linesize
                0x0000000080000014                __pic32_icache_ways
                0x0000000080000018                __pic32_dcache_size
                0x000000008000001c                __pic32_dcache_linesize
                0x0000000080000020                __pic32_dcache_ways
                0x0000000080000024                __pic32_scache_size
                0x0000000080000028                __pic32_scache_linesize
                0x000000008000002c                __pic32_scache_ways
                0x0000000080000030                . = ALIGN (0x4)
                0x0000000080000030                _sdata_end = .

.lit8
 *(.lit8)

.lit4
 *(.lit4)
                0x0000000080000030                . = ALIGN (0x4)
                0x0000000080000030                _data_end = .
                0x0000000080000030                _bss_begin = .

.sbss           0x0000000080000030       0x1c
                0x0000000080000030                _sbss_begin = .
 *(.dynsbss)
 *(.sbss .sbss.* .gnu.linkonce.sb.*)
 .sbss.tmr2Obj  0x0000000080000030        0x8 build/default/production/_ext/60181895/plib_tmr2.o
 .sbss.exception_address
                0x0000000080000038        0x4 build/default/production/_ext/1171490990/exceptions.o
 .sbss.exception_code
                0x000000008000003c        0x4 build/default/production/_ext/1171490990/exceptions.o
 .sbss.tempSampleRate
                0x0000000080000040        0x4 build/default/production/_ext/1360937237/main.o
 .sbss.isTmr2Expired
                0x0000000080000044        0x1 build/default/production/_ext/1360937237/main.o
 .sbss.changeTempSamplingRate
                0x0000000080000045        0x1 build/default/production/_ext/1360937237/main.o
 .sbss.isUARTTxComplete
                0x0000000080000046        0x1 build/default/production/_ext/1360937237/main.o
 *fill*         0x0000000080000047        0x1 
 .sbss.temperatureVal
                0x0000000080000048        0x2 build/default/production/_ext/1360937237/main.o
 .sbss.isUARTBufferCompleteEvent
                0x000000008000004a        0x1 build/default/production/_ext/1360937237/main.o
 *(.scommon)
                0x000000008000004b                _sbss_end = .
                0x000000008000004c                . = ALIGN (0x4)
 *fill*         0x000000008000004b        0x1 

.bss            0x000000008000004c        0x0
 *(.dynbss)
 *(COMMON)
                0x000000008000004c                . = ALIGN ((. != 0x0)?0x4:0x1)
                0x000000008000004c                . = ALIGN (0x4)
                0x000000008000004c                _end = .
                0x000000008000004c                _bss_end = .
                0x0000000000020000                _bmxdudba_address = LENGTH (kseg0_data_mem)
                0x0000000000020000                _bmxdupba_address = LENGTH (kseg0_data_mem)

/DISCARD/
 *(.pdr)
 *(.rel.dyn)
 *(.note.GNU-stack)
 *(.note.GNU-stack)
 *(.gnu_debuglink)
 *(.gnu.lto_*)
 *(.discard)

.gptab.sdata
 *(.gptab.data)
 *(.gptab.sdata)

.gptab.sbss
 *(.gptab.bss)
 *(.gptab.sbss)

.mdebug.abi32   0x0000000000000000        0x0
 *(.mdebug.abi32)
 .mdebug.abi32  0x0000000000000000        0x0 build/default/production/_ext/60165520/plib_clk.o
 .mdebug.abi32  0x0000000000000000        0x0 build/default/production/_ext/1249264884/plib_coretimer.o
 .mdebug.abi32  0x0000000000000000        0x0 build/default/production/_ext/1865161661/plib_dmac.o
 .mdebug.abi32  0x0000000000000000        0x0 build/default/production/_ext/1865200349/plib_evic.o
 .mdebug.abi32  0x0000000000000000        0x0 build/default/production/_ext/1865254177/plib_gpio.o
 .mdebug.abi32  0x0000000000000000        0x0 build/default/production/_ext/513455433/plib_i2c1_master.o
 .mdebug.abi32  0x0000000000000000        0x0 build/default/production/_ext/60181895/plib_tmr2.o
 .mdebug.abi32  0x0000000000000000        0x0 build/default/production/_ext/1865657120/plib_uart2.o
 .mdebug.abi32  0x0000000000000000        0x0 build/default/production/_ext/163028504/xc32_monitor.o
 .mdebug.abi32  0x0000000000000000        0x0 build/default/production/_ext/1171490990/initialization.o
 .mdebug.abi32  0x0000000000000000        0x0 build/default/production/_ext/1171490990/interrupts.o
 .mdebug.abi32  0x0000000000000000        0x0 build/default/production/_ext/1171490990/exceptions.o
 .mdebug.abi32  0x0000000000000000        0x0 build/default/production/_ext/1360937237/main.o
 .mdebug.abi32  0x0000000000000000        0x0 build/default/production/_ext/1360937237/bme280_driver.o
 .mdebug.abi32  0x0000000000000000        0x0 f:/microchip/xc32/v4.35/bin/bin/../../lib/gcc/pic32mx/8.3.1/fpu64\libgcc.a(_divdi3.o)
 .mdebug.abi32  0x0000000000000000        0x0 f:/microchip/xc32/v4.35/bin/bin/../../lib/gcc/pic32mx/8.3.1/../../../../pic32mx/lib/fpu64\libpic32.a(default-on-reset.o)
 .mdebug.abi32  0x0000000000000000        0x0 f:/microchip/xc32/v4.35/bin/bin/../../lib/gcc/pic32mx/8.3.1/../../../../pic32mx/lib/fpu64\libpic32.a(default-on-bootstrap.o)
 .mdebug.abi32  0x0000000000000000        0x0 f:/microchip/xc32/v4.35/bin/bin/../../lib/gcc/pic32mx/8.3.1/../../../../pic32mx/lib/fpu64\libpic32.a(defaultinterrupt.o)
 .mdebug.abi32  0x0000000000000000        0x0 f:/microchip/xc32/v4.35/bin/bin/../../lib/gcc/pic32mx/8.3.1/../../../../pic32mx/lib/fpu64\libc-musl.a(__sio_sprintf_dn.o)
 .mdebug.abi32  0x0000000000000000        0x0 f:/microchip/xc32/v4.35/bin/bin/../../lib/gcc/pic32mx/8.3.1/../../../../pic32mx/lib/fpu64\libc-musl.a(__fmt_d.o)
 .mdebug.abi32  0x0000000000000000        0x0 f:/microchip/xc32/v4.35/bin/bin/../../lib/gcc/pic32mx/8.3.1/../../../../pic32mx/lib/fpu64\libc-musl.a(__pop_int.o)
 .mdebug.abi32  0x0000000000000000        0x0 f:/microchip/xc32/v4.35/bin/bin/../../lib/gcc/pic32mx/8.3.1/../../../../pic32mx/lib/fpu64\libc-musl.a(__pop_ptr.o)
 .mdebug.abi32  0x0000000000000000        0x0 f:/microchip/xc32/v4.35/bin/bin/../../lib/gcc/pic32mx/8.3.1/../../../../pic32mx/lib/fpu64\libc-musl.a(__printf_core.o)
 .mdebug.abi32  0x0000000000000000        0x0 f:/microchip/xc32/v4.35/bin/bin/../../lib/gcc/pic32mx/8.3.1/../../../../pic32mx/lib/fpu64\libc-musl.a(atoi.o)
 .mdebug.abi32  0x0000000000000000        0x0 f:/microchip/xc32/v4.35/bin/bin/../../lib/gcc/pic32mx/8.3.1/../../../../pic32mx/lib/fpu64\libc-musl.a(memcpy.o)
 .mdebug.abi32  0x0000000000000000        0x0 f:/microchip/xc32/v4.35/bin/bin/../../lib/gcc/pic32mx/8.3.1/../../../../pic32mx/lib/fpu64\libc-musl.a(memset.o)
 .mdebug.abi32  0x0000000000000000        0x0 f:/microchip/xc32/v4.35/bin/bin/../../lib/gcc/pic32mx/8.3.1/../../../../pic32mx/lib/fpu64\libc-musl.a(tolower.o)
 .mdebug.abi32  0x0000000000000000        0x0 f:/microchip/xc32/v4.35/bin/bin/../../lib/gcc/pic32mx/8.3.1/../../../../pic32mx/lib/fpu64\libc-musl.a(__int_vsprintf.o)
 .mdebug.abi32  0x0000000000000000        0x0 f:/microchip/xc32/v4.35/bin/bin/../../lib/gcc/pic32mx/8.3.1/../../../../pic32mx/lib/fpu64\libc-musl.a(__cvt_u.o)
 .mdebug.abi32  0x0000000000000000        0x0 f:/microchip/xc32/v4.35/bin/bin/../../lib/gcc/pic32mx/8.3.1/../../../../pic32mx/lib/fpu64\libc-musl.a(__pop_float.o)
 .mdebug.abi32  0x0000000000000000        0x0 f:/microchip/xc32/v4.35/bin/bin/../../lib/gcc/pic32mx/8.3.1/../../../../pic32mx/lib/fpu64\libc-musl.a(__int_vsnprintf.o)
 .mdebug.abi32  0x0000000000000000        0x0 f:/microchip/xc32/v4.35/bin/bin/../../lib/gcc/pic32mx/8.3.1/../../../../pic32mx/lib/fpu64\libc-musl.a(__int_vfprintf.o)
 .mdebug.abi32  0x0000000000000000        0x0 f:/microchip/xc32/v4.35/bin/bin/../../lib/gcc/pic32mx/8.3.1/fpu64\libgcc.a(_udivdi3.o)
 .mdebug.abi32  0x0000000000000000        0x0 f:/microchip/xc32/v4.35/bin/bin/../../lib/gcc/pic32mx/8.3.1/fpu64\libgcc.a(_umoddi3.o)
 .mdebug.abi32  0x0000000000000000        0x0 f:/microchip/xc32/v4.35/bin/bin/../../lib/gcc/pic32mx/8.3.1/../../../../pic32mx/lib/fpu64\libpic32.a(errno.o)

.mdebug.abiN32
 *(.mdebug.abiN32)

.mdebug.abi64
 *(.mdebug.abi64)

.mdebug.abiO64
 *(.mdebug.abiO64)

.mdebug.eabi32
 *(.mdebug.eabi32)

.mdebug.eabi64
 *(.mdebug.eabi64)

.gcc_compiled_long32
 *(.gcc_compiled_long32)

.gcc_compiled_long64
 *(.gcc_compiled_long64)

.stab
 *(.stab)

.stabstr
 *(.stabstr)

.stab.excl
 *(.stab.excl)

.stab.exclstr
 *(.stab.exclstr)

.stab.index
 *(.stab.index)

.stab.indexstr
 *(.stab.indexstr)

.comment        0x0000000000000000       0x44
 *(.comment)
 .comment       0x0000000000000000       0x2b build/default/production/_ext/60165520/plib_clk.o
                                         0x2c (size before relaxing)
 .comment       0x000000000000002b       0x2c build/default/production/_ext/1249264884/plib_coretimer.o
 .comment       0x000000000000002b       0x2c build/default/production/_ext/1865161661/plib_dmac.o
 .comment       0x000000000000002b       0x2c build/default/production/_ext/1865200349/plib_evic.o
 .comment       0x000000000000002b       0x2c build/default/production/_ext/1865254177/plib_gpio.o
 .comment       0x000000000000002b       0x2c build/default/production/_ext/513455433/plib_i2c1_master.o
 .comment       0x000000000000002b       0x2c build/default/production/_ext/60181895/plib_tmr2.o
 .comment       0x000000000000002b       0x2c build/default/production/_ext/1865657120/plib_uart2.o
 .comment       0x000000000000002b       0x2c build/default/production/_ext/163028504/xc32_monitor.o
 .comment       0x000000000000002b       0x2c build/default/production/_ext/1171490990/initialization.o
 .comment       0x000000000000002b       0x2c build/default/production/_ext/1171490990/interrupts.o
 .comment       0x000000000000002b       0x2c build/default/production/_ext/1171490990/exceptions.o
 .comment       0x000000000000002b       0x2c build/default/production/_ext/1360937237/main.o
 .comment       0x000000000000002b       0x2c build/default/production/_ext/1360937237/bme280_driver.o
 .comment       0x000000000000002b       0x2c f:/microchip/xc32/v4.35/bin/bin/../../lib/gcc/pic32mx/8.3.1/fpu64\libgcc.a(_divdi3.o)
 .comment       0x000000000000002b       0x19 f:/microchip/xc32/v4.35/bin/bin/../../lib/gcc/pic32mx/8.3.1/../../../../pic32mx/lib/fpu64\libpic32.a(strlen.o)
                                         0x1a (size before relaxing)
 .comment       0x0000000000000044       0x2c f:/microchip/xc32/v4.35/bin/bin/../../lib/gcc/pic32mx/8.3.1/../../../../pic32mx/lib/fpu64\libpic32.a(default-on-reset.o)
 .comment       0x0000000000000044       0x2c f:/microchip/xc32/v4.35/bin/bin/../../lib/gcc/pic32mx/8.3.1/../../../../pic32mx/lib/fpu64\libpic32.a(default-on-bootstrap.o)
 .comment       0x0000000000000044       0x2c f:/microchip/xc32/v4.35/bin/bin/../../lib/gcc/pic32mx/8.3.1/../../../../pic32mx/lib/fpu64\libpic32.a(defaultinterrupt.o)
 .comment       0x0000000000000044       0x2c f:/microchip/xc32/v4.35/bin/bin/../../lib/gcc/pic32mx/8.3.1/../../../../pic32mx/lib/fpu64\libc-musl.a(__sio_sprintf_dn.o)
 .comment       0x0000000000000044       0x2c f:/microchip/xc32/v4.35/bin/bin/../../lib/gcc/pic32mx/8.3.1/../../../../pic32mx/lib/fpu64\libc-musl.a(__fmt_d.o)
 .comment       0x0000000000000044       0x2c f:/microchip/xc32/v4.35/bin/bin/../../lib/gcc/pic32mx/8.3.1/../../../../pic32mx/lib/fpu64\libc-musl.a(__pop_int.o)
 .comment       0x0000000000000044       0x2c f:/microchip/xc32/v4.35/bin/bin/../../lib/gcc/pic32mx/8.3.1/../../../../pic32mx/lib/fpu64\libc-musl.a(__pop_ptr.o)
 .comment       0x0000000000000044       0x2c f:/microchip/xc32/v4.35/bin/bin/../../lib/gcc/pic32mx/8.3.1/../../../../pic32mx/lib/fpu64\libc-musl.a(__printf_core.o)
 .comment       0x0000000000000044       0x2c f:/microchip/xc32/v4.35/bin/bin/../../lib/gcc/pic32mx/8.3.1/../../../../pic32mx/lib/fpu64\libc-musl.a(atoi.o)
 .comment       0x0000000000000044       0x2c f:/microchip/xc32/v4.35/bin/bin/../../lib/gcc/pic32mx/8.3.1/../../../../pic32mx/lib/fpu64\libc-musl.a(memcpy.o)
 .comment       0x0000000000000044       0x2c f:/microchip/xc32/v4.35/bin/bin/../../lib/gcc/pic32mx/8.3.1/../../../../pic32mx/lib/fpu64\libc-musl.a(memset.o)
 .comment       0x0000000000000044       0x2c f:/microchip/xc32/v4.35/bin/bin/../../lib/gcc/pic32mx/8.3.1/../../../../pic32mx/lib/fpu64\libc-musl.a(tolower.o)
 .comment       0x0000000000000044       0x2c f:/microchip/xc32/v4.35/bin/bin/../../lib/gcc/pic32mx/8.3.1/../../../../pic32mx/lib/fpu64\libc-musl.a(__int_vsprintf.o)
 .comment       0x0000000000000044       0x2c f:/microchip/xc32/v4.35/bin/bin/../../lib/gcc/pic32mx/8.3.1/../../../../pic32mx/lib/fpu64\libc-musl.a(__cvt_u.o)
 .comment       0x0000000000000044       0x2c f:/microchip/xc32/v4.35/bin/bin/../../lib/gcc/pic32mx/8.3.1/../../../../pic32mx/lib/fpu64\libc-musl.a(__pop_float.o)
 .comment       0x0000000000000044       0x2c f:/microchip/xc32/v4.35/bin/bin/../../lib/gcc/pic32mx/8.3.1/../../../../pic32mx/lib/fpu64\libc-musl.a(__int_vsnprintf.o)
 .comment       0x0000000000000044       0x2c f:/microchip/xc32/v4.35/bin/bin/../../lib/gcc/pic32mx/8.3.1/../../../../pic32mx/lib/fpu64\libc-musl.a(__int_vfprintf.o)
 .comment       0x0000000000000044       0x2c f:/microchip/xc32/v4.35/bin/bin/../../lib/gcc/pic32mx/8.3.1/fpu64\libgcc.a(_udivdi3.o)
 .comment       0x0000000000000044       0x2c f:/microchip/xc32/v4.35/bin/bin/../../lib/gcc/pic32mx/8.3.1/fpu64\libgcc.a(_umoddi3.o)
 .comment       0x0000000000000044       0x2c f:/microchip/xc32/v4.35/bin/bin/../../lib/gcc/pic32mx/8.3.1/../../../../pic32mx/lib/fpu64\libpic32.a(errno.o)

.debug
 *.elf(.debug)
 *(.debug)

.line
 *.elf(.line)
 *(.line)

.debug_srcinfo
 *.elf(.debug_srcinfo)
 *(.debug_srcinfo)

.debug_sfnames
 *.elf(.debug_sfnames)
 *(.debug_sfnames)

.debug_aranges  0x0000000000000000      0x838
 *.elf(.debug_aranges)
 *(.debug_aranges)
 .debug_aranges
                0x0000000000000000       0x20 build/default/production/_ext/60165520/plib_clk.o
 .debug_aranges
                0x0000000000000020       0x60 build/default/production/_ext/1249264884/plib_coretimer.o
 .debug_aranges
                0x0000000000000080       0x90 build/default/production/_ext/1865161661/plib_dmac.o
 .debug_aranges
                0x0000000000000110       0x68 build/default/production/_ext/1865200349/plib_evic.o
 .debug_aranges
                0x0000000000000178       0x90 build/default/production/_ext/1865254177/plib_gpio.o
 .debug_aranges
                0x0000000000000208       0x78 build/default/production/_ext/513455433/plib_i2c1_master.o
 .debug_aranges
                0x0000000000000280       0x70 build/default/production/_ext/60181895/plib_tmr2.o
 .debug_aranges
                0x00000000000002f0       0xb0 build/default/production/_ext/1865657120/plib_uart2.o
 .debug_aranges
                0x00000000000003a0       0x28 build/default/production/_ext/163028504/xc32_monitor.o
 .debug_aranges
                0x00000000000003c8       0x20 build/default/production/_ext/1171490990/initialization.o
 .debug_aranges
                0x00000000000003e8       0x58 build/default/production/_ext/1171490990/interrupts.o
 .debug_aranges
                0x0000000000000440       0x38 build/default/production/_ext/1171490990/exceptions.o
 .debug_aranges
                0x0000000000000478       0x70 build/default/production/_ext/1360937237/main.o
 .debug_aranges
                0x00000000000004e8       0x90 build/default/production/_ext/1360937237/bme280_driver.o
 .debug_aranges
                0x0000000000000578       0x20 f:/microchip/xc32/v4.35/bin/bin/../../lib/gcc/pic32mx/8.3.1/fpu64\libgcc.a(_divdi3.o)
 .debug_aranges
                0x0000000000000598       0x20 f:/microchip/xc32/v4.35/bin/bin/../../lib/gcc/pic32mx/8.3.1/../../../../pic32mx/lib/fpu64\libpic32.a(default-on-reset.o)
 .debug_aranges
                0x00000000000005b8       0x20 f:/microchip/xc32/v4.35/bin/bin/../../lib/gcc/pic32mx/8.3.1/../../../../pic32mx/lib/fpu64\libpic32.a(default-on-bootstrap.o)
 .debug_aranges
                0x00000000000005d8       0x20 f:/microchip/xc32/v4.35/bin/bin/../../lib/gcc/pic32mx/8.3.1/../../../../pic32mx/lib/fpu64\libpic32.a(defaultinterrupt.o)
 .debug_aranges
                0x00000000000005f8       0x28 f:/microchip/xc32/v4.35/bin/bin/../../lib/gcc/pic32mx/8.3.1/../../../../pic32mx/lib/fpu64\libc-musl.a(__sio_sprintf_dn.o)
 .debug_aranges
                0x0000000000000620       0x20 f:/microchip/xc32/v4.35/bin/bin/../../lib/gcc/pic32mx/8.3.1/../../../../pic32mx/lib/fpu64\libc-musl.a(__fmt_d.o)
 .debug_aranges
                0x0000000000000640       0x20 f:/microchip/xc32/v4.35/bin/bin/../../lib/gcc/pic32mx/8.3.1/../../../../pic32mx/lib/fpu64\libc-musl.a(__pop_int.o)
 .debug_aranges
                0x0000000000000660       0x20 f:/microchip/xc32/v4.35/bin/bin/../../lib/gcc/pic32mx/8.3.1/../../../../pic32mx/lib/fpu64\libc-musl.a(__pop_ptr.o)
 .debug_aranges
                0x0000000000000680       0x50 f:/microchip/xc32/v4.35/bin/bin/../../lib/gcc/pic32mx/8.3.1/../../../../pic32mx/lib/fpu64\libc-musl.a(__printf_core.o)
 .debug_aranges
                0x00000000000006d0       0x20 f:/microchip/xc32/v4.35/bin/bin/../../lib/gcc/pic32mx/8.3.1/../../../../pic32mx/lib/fpu64\libc-musl.a(atoi.o)
 .debug_aranges
                0x00000000000006f0       0x20 f:/microchip/xc32/v4.35/bin/bin/../../lib/gcc/pic32mx/8.3.1/../../../../pic32mx/lib/fpu64\libc-musl.a(memcpy.o)
 .debug_aranges
                0x0000000000000710       0x20 f:/microchip/xc32/v4.35/bin/bin/../../lib/gcc/pic32mx/8.3.1/../../../../pic32mx/lib/fpu64\libc-musl.a(memset.o)
 .debug_aranges
                0x0000000000000730       0x28 f:/microchip/xc32/v4.35/bin/bin/../../lib/gcc/pic32mx/8.3.1/../../../../pic32mx/lib/fpu64\libc-musl.a(tolower.o)
 .debug_aranges
                0x0000000000000758       0x20 f:/microchip/xc32/v4.35/bin/bin/../../lib/gcc/pic32mx/8.3.1/../../../../pic32mx/lib/fpu64\libc-musl.a(__int_vsprintf.o)
 .debug_aranges
                0x0000000000000778       0x20 f:/microchip/xc32/v4.35/bin/bin/../../lib/gcc/pic32mx/8.3.1/../../../../pic32mx/lib/fpu64\libc-musl.a(__cvt_u.o)
 .debug_aranges
                0x0000000000000798       0x20 f:/microchip/xc32/v4.35/bin/bin/../../lib/gcc/pic32mx/8.3.1/../../../../pic32mx/lib/fpu64\libc-musl.a(__pop_float.o)
 .debug_aranges
                0x00000000000007b8       0x20 f:/microchip/xc32/v4.35/bin/bin/../../lib/gcc/pic32mx/8.3.1/../../../../pic32mx/lib/fpu64\libc-musl.a(__int_vsnprintf.o)
 .debug_aranges
                0x00000000000007d8       0x20 f:/microchip/xc32/v4.35/bin/bin/../../lib/gcc/pic32mx/8.3.1/../../../../pic32mx/lib/fpu64\libc-musl.a(__int_vfprintf.o)
 .debug_aranges
                0x00000000000007f8       0x20 f:/microchip/xc32/v4.35/bin/bin/../../lib/gcc/pic32mx/8.3.1/fpu64\libgcc.a(_udivdi3.o)
 .debug_aranges
                0x0000000000000818       0x20 f:/microchip/xc32/v4.35/bin/bin/../../lib/gcc/pic32mx/8.3.1/fpu64\libgcc.a(_umoddi3.o)

.debug_pubnames
 *.elf(.debug_pubnames)
 *(.debug_pubnames)

.debug_info     0x0000000000000000     0x751c
 *.elf(.debug_info .gnu.linkonce.wi.*)
 *(.debug_info .gnu.linkonce.wi.*)
 .debug_info    0x0000000000000000      0x263 build/default/production/_ext/60165520/plib_clk.o
 .debug_info    0x0000000000000263      0x4e2 build/default/production/_ext/1249264884/plib_coretimer.o
 .debug_info    0x0000000000000745      0xb11 build/default/production/_ext/1865161661/plib_dmac.o
 .debug_info    0x0000000000001256      0x34c build/default/production/_ext/1865200349/plib_evic.o
 .debug_info    0x00000000000015a2      0x808 build/default/production/_ext/1865254177/plib_gpio.o
 .debug_info    0x0000000000001daa      0x737 build/default/production/_ext/513455433/plib_i2c1_master.o
 .debug_info    0x00000000000024e1      0x59f build/default/production/_ext/60181895/plib_tmr2.o
 .debug_info    0x0000000000002a80      0x757 build/default/production/_ext/1865657120/plib_uart2.o
 .debug_info    0x00000000000031d7       0xed build/default/production/_ext/163028504/xc32_monitor.o
 .debug_info    0x00000000000032c4      0x270 build/default/production/_ext/1171490990/initialization.o
 .debug_info    0x0000000000003534      0x134 build/default/production/_ext/1171490990/interrupts.o
 .debug_info    0x0000000000003668      0x115 build/default/production/_ext/1171490990/exceptions.o
 .debug_info    0x000000000000377d      0x4eb build/default/production/_ext/1360937237/main.o
 .debug_info    0x0000000000003c68      0x58d build/default/production/_ext/1360937237/bme280_driver.o
 .debug_info    0x00000000000041f5      0x71c f:/microchip/xc32/v4.35/bin/bin/../../lib/gcc/pic32mx/8.3.1/fpu64\libgcc.a(_divdi3.o)
 .debug_info    0x0000000000004911       0x3f f:/microchip/xc32/v4.35/bin/bin/../../lib/gcc/pic32mx/8.3.1/../../../../pic32mx/lib/fpu64\libpic32.a(default-on-reset.o)
 .debug_info    0x0000000000004950       0x3f f:/microchip/xc32/v4.35/bin/bin/../../lib/gcc/pic32mx/8.3.1/../../../../pic32mx/lib/fpu64\libpic32.a(default-on-bootstrap.o)
 .debug_info    0x000000000000498f       0x40 f:/microchip/xc32/v4.35/bin/bin/../../lib/gcc/pic32mx/8.3.1/../../../../pic32mx/lib/fpu64\libpic32.a(defaultinterrupt.o)
 .debug_info    0x00000000000049cf      0x18b f:/microchip/xc32/v4.35/bin/bin/../../lib/gcc/pic32mx/8.3.1/../../../../pic32mx/lib/fpu64\libc-musl.a(__sio_sprintf_dn.o)
 .debug_info    0x0000000000004b5a      0x327 f:/microchip/xc32/v4.35/bin/bin/../../lib/gcc/pic32mx/8.3.1/../../../../pic32mx/lib/fpu64\libc-musl.a(__fmt_d.o)
 .debug_info    0x0000000000004e81      0x14e f:/microchip/xc32/v4.35/bin/bin/../../lib/gcc/pic32mx/8.3.1/../../../../pic32mx/lib/fpu64\libc-musl.a(__pop_int.o)
 .debug_info    0x0000000000004fcf      0x15e f:/microchip/xc32/v4.35/bin/bin/../../lib/gcc/pic32mx/8.3.1/../../../../pic32mx/lib/fpu64\libc-musl.a(__pop_ptr.o)
 .debug_info    0x000000000000512d      0xa27 f:/microchip/xc32/v4.35/bin/bin/../../lib/gcc/pic32mx/8.3.1/../../../../pic32mx/lib/fpu64\libc-musl.a(__printf_core.o)
 .debug_info    0x0000000000005b54       0xee f:/microchip/xc32/v4.35/bin/bin/../../lib/gcc/pic32mx/8.3.1/../../../../pic32mx/lib/fpu64\libc-musl.a(atoi.o)
 .debug_info    0x0000000000005c42       0xf7 f:/microchip/xc32/v4.35/bin/bin/../../lib/gcc/pic32mx/8.3.1/../../../../pic32mx/lib/fpu64\libc-musl.a(memcpy.o)
 .debug_info    0x0000000000005d39       0xc0 f:/microchip/xc32/v4.35/bin/bin/../../lib/gcc/pic32mx/8.3.1/../../../../pic32mx/lib/fpu64\libc-musl.a(memset.o)
 .debug_info    0x0000000000005df9      0x11b f:/microchip/xc32/v4.35/bin/bin/../../lib/gcc/pic32mx/8.3.1/../../../../pic32mx/lib/fpu64\libc-musl.a(tolower.o)
 .debug_info    0x0000000000005f14      0x127 f:/microchip/xc32/v4.35/bin/bin/../../lib/gcc/pic32mx/8.3.1/../../../../pic32mx/lib/fpu64\libc-musl.a(__int_vsprintf.o)
 .debug_info    0x000000000000603b      0x1d0 f:/microchip/xc32/v4.35/bin/bin/../../lib/gcc/pic32mx/8.3.1/../../../../pic32mx/lib/fpu64\libc-musl.a(__cvt_u.o)
 .debug_info    0x000000000000620b      0x134 f:/microchip/xc32/v4.35/bin/bin/../../lib/gcc/pic32mx/8.3.1/../../../../pic32mx/lib/fpu64\libc-musl.a(__pop_float.o)
 .debug_info    0x000000000000633f      0x1f5 f:/microchip/xc32/v4.35/bin/bin/../../lib/gcc/pic32mx/8.3.1/../../../../pic32mx/lib/fpu64\libc-musl.a(__int_vsnprintf.o)
 .debug_info    0x0000000000006534      0x1e0 f:/microchip/xc32/v4.35/bin/bin/../../lib/gcc/pic32mx/8.3.1/../../../../pic32mx/lib/fpu64\libc-musl.a(__int_vfprintf.o)
 .debug_info    0x0000000000006714      0x6ca f:/microchip/xc32/v4.35/bin/bin/../../lib/gcc/pic32mx/8.3.1/fpu64\libgcc.a(_udivdi3.o)
 .debug_info    0x0000000000006dde      0x73e f:/microchip/xc32/v4.35/bin/bin/../../lib/gcc/pic32mx/8.3.1/fpu64\libgcc.a(_umoddi3.o)

.debug_abbrev   0x0000000000000000     0x271e
 *.elf(.debug_abbrev)
 *(.debug_abbrev)
 .debug_abbrev  0x0000000000000000       0xd0 build/default/production/_ext/60165520/plib_clk.o
 .debug_abbrev  0x00000000000000d0      0x150 build/default/production/_ext/1249264884/plib_coretimer.o
 .debug_abbrev  0x0000000000000220      0x273 build/default/production/_ext/1865161661/plib_dmac.o
 .debug_abbrev  0x0000000000000493       0xd4 build/default/production/_ext/1865200349/plib_evic.o
 .debug_abbrev  0x0000000000000567      0x25a build/default/production/_ext/1865254177/plib_gpio.o
 .debug_abbrev  0x00000000000007c1      0x1ce build/default/production/_ext/513455433/plib_i2c1_master.o
 .debug_abbrev  0x000000000000098f      0x1b2 build/default/production/_ext/60181895/plib_tmr2.o
 .debug_abbrev  0x0000000000000b41      0x1f4 build/default/production/_ext/1865657120/plib_uart2.o
 .debug_abbrev  0x0000000000000d35       0x9e build/default/production/_ext/163028504/xc32_monitor.o
 .debug_abbrev  0x0000000000000dd3      0x111 build/default/production/_ext/1171490990/initialization.o
 .debug_abbrev  0x0000000000000ee4       0x46 build/default/production/_ext/1171490990/interrupts.o
 .debug_abbrev  0x0000000000000f2a       0x69 build/default/production/_ext/1171490990/exceptions.o
 .debug_abbrev  0x0000000000000f93      0x1db build/default/production/_ext/1360937237/main.o
 .debug_abbrev  0x000000000000116e      0x1b4 build/default/production/_ext/1360937237/bme280_driver.o
 .debug_abbrev  0x0000000000001322      0x1a3 f:/microchip/xc32/v4.35/bin/bin/../../lib/gcc/pic32mx/8.3.1/fpu64\libgcc.a(_divdi3.o)
 .debug_abbrev  0x00000000000014c5       0x2e f:/microchip/xc32/v4.35/bin/bin/../../lib/gcc/pic32mx/8.3.1/../../../../pic32mx/lib/fpu64\libpic32.a(default-on-reset.o)
 .debug_abbrev  0x00000000000014f3       0x2e f:/microchip/xc32/v4.35/bin/bin/../../lib/gcc/pic32mx/8.3.1/../../../../pic32mx/lib/fpu64\libpic32.a(default-on-bootstrap.o)
 .debug_abbrev  0x0000000000001521       0x31 f:/microchip/xc32/v4.35/bin/bin/../../lib/gcc/pic32mx/8.3.1/../../../../pic32mx/lib/fpu64\libpic32.a(defaultinterrupt.o)
 .debug_abbrev  0x0000000000001552      0x100 f:/microchip/xc32/v4.35/bin/bin/../../lib/gcc/pic32mx/8.3.1/../../../../pic32mx/lib/fpu64\libc-musl.a(__sio_sprintf_dn.o)
 .debug_abbrev  0x0000000000001652      0x161 f:/microchip/xc32/v4.35/bin/bin/../../lib/gcc/pic32mx/8.3.1/../../../../pic32mx/lib/fpu64\libc-musl.a(__fmt_d.o)
 .debug_abbrev  0x00000000000017b3       0xc3 f:/microchip/xc32/v4.35/bin/bin/../../lib/gcc/pic32mx/8.3.1/../../../../pic32mx/lib/fpu64\libc-musl.a(__pop_int.o)
 .debug_abbrev  0x0000000000001876       0xd7 f:/microchip/xc32/v4.35/bin/bin/../../lib/gcc/pic32mx/8.3.1/../../../../pic32mx/lib/fpu64\libc-musl.a(__pop_ptr.o)
 .debug_abbrev  0x000000000000194d      0x318 f:/microchip/xc32/v4.35/bin/bin/../../lib/gcc/pic32mx/8.3.1/../../../../pic32mx/lib/fpu64\libc-musl.a(__printf_core.o)
 .debug_abbrev  0x0000000000001c65       0xc4 f:/microchip/xc32/v4.35/bin/bin/../../lib/gcc/pic32mx/8.3.1/../../../../pic32mx/lib/fpu64\libc-musl.a(atoi.o)
 .debug_abbrev  0x0000000000001d29       0xaa f:/microchip/xc32/v4.35/bin/bin/../../lib/gcc/pic32mx/8.3.1/../../../../pic32mx/lib/fpu64\libc-musl.a(memcpy.o)
 .debug_abbrev  0x0000000000001dd3       0x91 f:/microchip/xc32/v4.35/bin/bin/../../lib/gcc/pic32mx/8.3.1/../../../../pic32mx/lib/fpu64\libc-musl.a(memset.o)
 .debug_abbrev  0x0000000000001e64       0xf1 f:/microchip/xc32/v4.35/bin/bin/../../lib/gcc/pic32mx/8.3.1/../../../../pic32mx/lib/fpu64\libc-musl.a(tolower.o)
 .debug_abbrev  0x0000000000001f55       0xb1 f:/microchip/xc32/v4.35/bin/bin/../../lib/gcc/pic32mx/8.3.1/../../../../pic32mx/lib/fpu64\libc-musl.a(__int_vsprintf.o)
 .debug_abbrev  0x0000000000002006       0xe5 f:/microchip/xc32/v4.35/bin/bin/../../lib/gcc/pic32mx/8.3.1/../../../../pic32mx/lib/fpu64\libc-musl.a(__cvt_u.o)
 .debug_abbrev  0x00000000000020eb       0xc3 f:/microchip/xc32/v4.35/bin/bin/../../lib/gcc/pic32mx/8.3.1/../../../../pic32mx/lib/fpu64\libc-musl.a(__pop_float.o)
 .debug_abbrev  0x00000000000021ae      0x13a f:/microchip/xc32/v4.35/bin/bin/../../lib/gcc/pic32mx/8.3.1/../../../../pic32mx/lib/fpu64\libc-musl.a(__int_vsnprintf.o)
 .debug_abbrev  0x00000000000022e8      0x118 f:/microchip/xc32/v4.35/bin/bin/../../lib/gcc/pic32mx/8.3.1/../../../../pic32mx/lib/fpu64\libc-musl.a(__int_vfprintf.o)
 .debug_abbrev  0x0000000000002400      0x184 f:/microchip/xc32/v4.35/bin/bin/../../lib/gcc/pic32mx/8.3.1/fpu64\libgcc.a(_udivdi3.o)
 .debug_abbrev  0x0000000000002584      0x19a f:/microchip/xc32/v4.35/bin/bin/../../lib/gcc/pic32mx/8.3.1/fpu64\libgcc.a(_umoddi3.o)

.debug_line     0x0000000000000000     0x5842
 *.elf(.debug_line)
 *(.debug_line)
 .debug_line    0x0000000000000000      0x159 build/default/production/_ext/60165520/plib_clk.o
 .debug_line    0x0000000000000159      0x253 build/default/production/_ext/1249264884/plib_coretimer.o
 .debug_line    0x00000000000003ac      0x62f build/default/production/_ext/1865161661/plib_dmac.o
 .debug_line    0x00000000000009db      0x2b6 build/default/production/_ext/1865200349/plib_evic.o
 .debug_line    0x0000000000000c91      0x438 build/default/production/_ext/1865254177/plib_gpio.o
 .debug_line    0x00000000000010c9      0x56c build/default/production/_ext/513455433/plib_i2c1_master.o
 .debug_line    0x0000000000001635      0x270 build/default/production/_ext/60181895/plib_tmr2.o
 .debug_line    0x00000000000018a5      0x58f build/default/production/_ext/1865657120/plib_uart2.o
 .debug_line    0x0000000000001e34       0xe7 build/default/production/_ext/163028504/xc32_monitor.o
 .debug_line    0x0000000000001f1b      0x15e build/default/production/_ext/1171490990/initialization.o
 .debug_line    0x0000000000002079      0x14f build/default/production/_ext/1171490990/interrupts.o
 .debug_line    0x00000000000021c8      0x13f build/default/production/_ext/1171490990/exceptions.o
 .debug_line    0x0000000000002307      0x4be build/default/production/_ext/1360937237/main.o
 .debug_line    0x00000000000027c5      0x653 build/default/production/_ext/1360937237/bme280_driver.o
 .debug_line    0x0000000000002e18      0x32a f:/microchip/xc32/v4.35/bin/bin/../../lib/gcc/pic32mx/8.3.1/fpu64\libgcc.a(_divdi3.o)
 .debug_line    0x0000000000003142       0xa8 f:/microchip/xc32/v4.35/bin/bin/../../lib/gcc/pic32mx/8.3.1/../../../../pic32mx/lib/fpu64\libpic32.a(default-on-reset.o)
 .debug_line    0x00000000000031ea       0xac f:/microchip/xc32/v4.35/bin/bin/../../lib/gcc/pic32mx/8.3.1/../../../../pic32mx/lib/fpu64\libpic32.a(default-on-bootstrap.o)
 .debug_line    0x0000000000003296       0xcb f:/microchip/xc32/v4.35/bin/bin/../../lib/gcc/pic32mx/8.3.1/../../../../pic32mx/lib/fpu64\libpic32.a(defaultinterrupt.o)
 .debug_line    0x0000000000003361      0x1ec f:/microchip/xc32/v4.35/bin/bin/../../lib/gcc/pic32mx/8.3.1/../../../../pic32mx/lib/fpu64\libc-musl.a(__sio_sprintf_dn.o)
 .debug_line    0x000000000000354d      0x256 f:/microchip/xc32/v4.35/bin/bin/../../lib/gcc/pic32mx/8.3.1/../../../../pic32mx/lib/fpu64\libc-musl.a(__fmt_d.o)
 .debug_line    0x00000000000037a3      0x252 f:/microchip/xc32/v4.35/bin/bin/../../lib/gcc/pic32mx/8.3.1/../../../../pic32mx/lib/fpu64\libc-musl.a(__pop_int.o)
 .debug_line    0x00000000000039f5      0x20b f:/microchip/xc32/v4.35/bin/bin/../../lib/gcc/pic32mx/8.3.1/../../../../pic32mx/lib/fpu64\libc-musl.a(__pop_ptr.o)
 .debug_line    0x0000000000003c00      0x702 f:/microchip/xc32/v4.35/bin/bin/../../lib/gcc/pic32mx/8.3.1/../../../../pic32mx/lib/fpu64\libc-musl.a(__printf_core.o)
 .debug_line    0x0000000000004302      0x172 f:/microchip/xc32/v4.35/bin/bin/../../lib/gcc/pic32mx/8.3.1/../../../../pic32mx/lib/fpu64\libc-musl.a(atoi.o)
 .debug_line    0x0000000000004474      0x13f f:/microchip/xc32/v4.35/bin/bin/../../lib/gcc/pic32mx/8.3.1/../../../../pic32mx/lib/fpu64\libc-musl.a(memcpy.o)
 .debug_line    0x00000000000045b3      0x133 f:/microchip/xc32/v4.35/bin/bin/../../lib/gcc/pic32mx/8.3.1/../../../../pic32mx/lib/fpu64\libc-musl.a(memset.o)
 .debug_line    0x00000000000046e6      0x1b9 f:/microchip/xc32/v4.35/bin/bin/../../lib/gcc/pic32mx/8.3.1/../../../../pic32mx/lib/fpu64\libc-musl.a(tolower.o)
 .debug_line    0x000000000000489f      0x1a3 f:/microchip/xc32/v4.35/bin/bin/../../lib/gcc/pic32mx/8.3.1/../../../../pic32mx/lib/fpu64\libc-musl.a(__int_vsprintf.o)
 .debug_line    0x0000000000004a42      0x23a f:/microchip/xc32/v4.35/bin/bin/../../lib/gcc/pic32mx/8.3.1/../../../../pic32mx/lib/fpu64\libc-musl.a(__cvt_u.o)
 .debug_line    0x0000000000004c7c      0x1b3 f:/microchip/xc32/v4.35/bin/bin/../../lib/gcc/pic32mx/8.3.1/../../../../pic32mx/lib/fpu64\libc-musl.a(__pop_float.o)
 .debug_line    0x0000000000004e2f      0x265 f:/microchip/xc32/v4.35/bin/bin/../../lib/gcc/pic32mx/8.3.1/../../../../pic32mx/lib/fpu64\libc-musl.a(__int_vsnprintf.o)
 .debug_line    0x0000000000005094      0x1c1 f:/microchip/xc32/v4.35/bin/bin/../../lib/gcc/pic32mx/8.3.1/../../../../pic32mx/lib/fpu64\libc-musl.a(__int_vfprintf.o)
 .debug_line    0x0000000000005255      0x2db f:/microchip/xc32/v4.35/bin/bin/../../lib/gcc/pic32mx/8.3.1/fpu64\libgcc.a(_udivdi3.o)
 .debug_line    0x0000000000005530      0x312 f:/microchip/xc32/v4.35/bin/bin/../../lib/gcc/pic32mx/8.3.1/fpu64\libgcc.a(_umoddi3.o)
 .debug_line    0x0000000000005842        0x0 f:/microchip/xc32/v4.35/bin/bin/../../lib/gcc/pic32mx/8.3.1/../../../../pic32mx/lib/fpu64\libpic32.a(errno.o)

.debug_frame    0x0000000000000000     0x1b98
 *.elf(.debug_frame)
 *(.debug_frame)
 .debug_frame   0x0000000000000000       0x30 build/default/production/_ext/60165520/plib_clk.o
 .debug_frame   0x0000000000000030      0x14c build/default/production/_ext/1249264884/plib_coretimer.o
 .debug_frame   0x000000000000017c      0x208 build/default/production/_ext/1865161661/plib_dmac.o
 .debug_frame   0x0000000000000384      0x15c build/default/production/_ext/1865200349/plib_evic.o
 .debug_frame   0x00000000000004e0      0x1fc build/default/production/_ext/1865254177/plib_gpio.o
 .debug_frame   0x00000000000006dc      0x1ac build/default/production/_ext/513455433/plib_i2c1_master.o
 .debug_frame   0x0000000000000888      0x174 build/default/production/_ext/60181895/plib_tmr2.o
 .debug_frame   0x00000000000009fc      0x288 build/default/production/_ext/1865657120/plib_uart2.o
 .debug_frame   0x0000000000000c84       0x50 build/default/production/_ext/163028504/xc32_monitor.o
 .debug_frame   0x0000000000000cd4       0x34 build/default/production/_ext/1171490990/initialization.o
 .debug_frame   0x0000000000000d08      0x690 build/default/production/_ext/1171490990/interrupts.o
 .debug_frame   0x0000000000001398       0x80 build/default/production/_ext/1171490990/exceptions.o
 .debug_frame   0x0000000000001418      0x188 build/default/production/_ext/1360937237/main.o
 .debug_frame   0x00000000000015a0      0x230 build/default/production/_ext/1360937237/bme280_driver.o
 .debug_frame   0x00000000000017d0       0x20 f:/microchip/xc32/v4.35/bin/bin/../../lib/gcc/pic32mx/8.3.1/fpu64\libgcc.a(_divdi3.o)
 .debug_frame   0x00000000000017f0       0x20 f:/microchip/xc32/v4.35/bin/bin/../../lib/gcc/pic32mx/8.3.1/../../../../pic32mx/lib/fpu64\libpic32.a(default-on-reset.o)
 .debug_frame   0x0000000000001810       0x20 f:/microchip/xc32/v4.35/bin/bin/../../lib/gcc/pic32mx/8.3.1/../../../../pic32mx/lib/fpu64\libpic32.a(default-on-bootstrap.o)
 .debug_frame   0x0000000000001830       0x20 f:/microchip/xc32/v4.35/bin/bin/../../lib/gcc/pic32mx/8.3.1/../../../../pic32mx/lib/fpu64\libpic32.a(defaultinterrupt.o)
 .debug_frame   0x0000000000001850       0x48 f:/microchip/xc32/v4.35/bin/bin/../../lib/gcc/pic32mx/8.3.1/../../../../pic32mx/lib/fpu64\libc-musl.a(__sio_sprintf_dn.o)
 .debug_frame   0x0000000000001898       0x38 f:/microchip/xc32/v4.35/bin/bin/../../lib/gcc/pic32mx/8.3.1/../../../../pic32mx/lib/fpu64\libc-musl.a(__fmt_d.o)
 .debug_frame   0x00000000000018d0       0x20 f:/microchip/xc32/v4.35/bin/bin/../../lib/gcc/pic32mx/8.3.1/../../../../pic32mx/lib/fpu64\libc-musl.a(__pop_int.o)
 .debug_frame   0x00000000000018f0       0x20 f:/microchip/xc32/v4.35/bin/bin/../../lib/gcc/pic32mx/8.3.1/../../../../pic32mx/lib/fpu64\libc-musl.a(__pop_ptr.o)
 .debug_frame   0x0000000000001910       0xc8 f:/microchip/xc32/v4.35/bin/bin/../../lib/gcc/pic32mx/8.3.1/../../../../pic32mx/lib/fpu64\libc-musl.a(__printf_core.o)
 .debug_frame   0x00000000000019d8       0x20 f:/microchip/xc32/v4.35/bin/bin/../../lib/gcc/pic32mx/8.3.1/../../../../pic32mx/lib/fpu64\libc-musl.a(atoi.o)
 .debug_frame   0x00000000000019f8       0x20 f:/microchip/xc32/v4.35/bin/bin/../../lib/gcc/pic32mx/8.3.1/../../../../pic32mx/lib/fpu64\libc-musl.a(memcpy.o)
 .debug_frame   0x0000000000001a18       0x20 f:/microchip/xc32/v4.35/bin/bin/../../lib/gcc/pic32mx/8.3.1/../../../../pic32mx/lib/fpu64\libc-musl.a(memset.o)
 .debug_frame   0x0000000000001a38       0x3c f:/microchip/xc32/v4.35/bin/bin/../../lib/gcc/pic32mx/8.3.1/../../../../pic32mx/lib/fpu64\libc-musl.a(tolower.o)
 .debug_frame   0x0000000000001a74       0x2c f:/microchip/xc32/v4.35/bin/bin/../../lib/gcc/pic32mx/8.3.1/../../../../pic32mx/lib/fpu64\libc-musl.a(__int_vsprintf.o)
 .debug_frame   0x0000000000001aa0       0x40 f:/microchip/xc32/v4.35/bin/bin/../../lib/gcc/pic32mx/8.3.1/../../../../pic32mx/lib/fpu64\libc-musl.a(__cvt_u.o)
 .debug_frame   0x0000000000001ae0       0x20 f:/microchip/xc32/v4.35/bin/bin/../../lib/gcc/pic32mx/8.3.1/../../../../pic32mx/lib/fpu64\libc-musl.a(__pop_float.o)
 .debug_frame   0x0000000000001b00       0x2c f:/microchip/xc32/v4.35/bin/bin/../../lib/gcc/pic32mx/8.3.1/../../../../pic32mx/lib/fpu64\libc-musl.a(__int_vsnprintf.o)
 .debug_frame   0x0000000000001b2c       0x2c f:/microchip/xc32/v4.35/bin/bin/../../lib/gcc/pic32mx/8.3.1/../../../../pic32mx/lib/fpu64\libc-musl.a(__int_vfprintf.o)
 .debug_frame   0x0000000000001b58       0x20 f:/microchip/xc32/v4.35/bin/bin/../../lib/gcc/pic32mx/8.3.1/fpu64\libgcc.a(_udivdi3.o)
 .debug_frame   0x0000000000001b78       0x20 f:/microchip/xc32/v4.35/bin/bin/../../lib/gcc/pic32mx/8.3.1/fpu64\libgcc.a(_umoddi3.o)

.debug_str      0x0000000000000000     0x9946
 *.elf(.debug_str)
 *(.debug_str)
 .debug_str     0x0000000000000000      0x3f3 build/default/production/_ext/60165520/plib_clk.o
 .debug_str     0x00000000000003f3      0x522 build/default/production/_ext/1249264884/plib_coretimer.o
 .debug_str     0x0000000000000915      0x912 build/default/production/_ext/1865161661/plib_dmac.o
 .debug_str     0x0000000000001227      0x491 build/default/production/_ext/1865200349/plib_evic.o
 .debug_str     0x00000000000016b8      0x6cc build/default/production/_ext/1865254177/plib_gpio.o
 .debug_str     0x0000000000001d84      0x799 build/default/production/_ext/513455433/plib_i2c1_master.o
 .debug_str     0x000000000000251d      0x55d build/default/production/_ext/60181895/plib_tmr2.o
 .debug_str     0x0000000000002a7a      0x6ca build/default/production/_ext/1865657120/plib_uart2.o
 .debug_str     0x0000000000003144      0x2de build/default/production/_ext/163028504/xc32_monitor.o
 .debug_str     0x0000000000003422      0x402 build/default/production/_ext/1171490990/initialization.o
 .debug_str     0x0000000000003824      0x3b4 build/default/production/_ext/1171490990/interrupts.o
 .debug_str     0x0000000000003bd8      0x3c8 build/default/production/_ext/1171490990/exceptions.o
 .debug_str     0x0000000000003fa0      0x700 build/default/production/_ext/1360937237/main.o
 .debug_str     0x00000000000046a0      0x5e3 build/default/production/_ext/1360937237/bme280_driver.o
 .debug_str     0x0000000000004c83      0x40a f:/microchip/xc32/v4.35/bin/bin/../../lib/gcc/pic32mx/8.3.1/fpu64\libgcc.a(_divdi3.o)
 .debug_str     0x000000000000508d      0x355 f:/microchip/xc32/v4.35/bin/bin/../../lib/gcc/pic32mx/8.3.1/../../../../pic32mx/lib/fpu64\libpic32.a(default-on-reset.o)
 .debug_str     0x00000000000053e2      0x35d f:/microchip/xc32/v4.35/bin/bin/../../lib/gcc/pic32mx/8.3.1/../../../../pic32mx/lib/fpu64\libpic32.a(default-on-bootstrap.o)
 .debug_str     0x000000000000573f      0x36f f:/microchip/xc32/v4.35/bin/bin/../../lib/gcc/pic32mx/8.3.1/../../../../pic32mx/lib/fpu64\libpic32.a(defaultinterrupt.o)
 .debug_str     0x0000000000005aae      0x3dd f:/microchip/xc32/v4.35/bin/bin/../../lib/gcc/pic32mx/8.3.1/../../../../pic32mx/lib/fpu64\libc-musl.a(__sio_sprintf_dn.o)
 .debug_str     0x0000000000005e8b      0x3e2 f:/microchip/xc32/v4.35/bin/bin/../../lib/gcc/pic32mx/8.3.1/../../../../pic32mx/lib/fpu64\libc-musl.a(__fmt_d.o)
 .debug_str     0x000000000000626d      0x3bb f:/microchip/xc32/v4.35/bin/bin/../../lib/gcc/pic32mx/8.3.1/../../../../pic32mx/lib/fpu64\libc-musl.a(__pop_int.o)
 .debug_str     0x0000000000006628      0x3bd f:/microchip/xc32/v4.35/bin/bin/../../lib/gcc/pic32mx/8.3.1/../../../../pic32mx/lib/fpu64\libc-musl.a(__pop_ptr.o)
 .debug_str     0x00000000000069e5      0x4d1 f:/microchip/xc32/v4.35/bin/bin/../../lib/gcc/pic32mx/8.3.1/../../../../pic32mx/lib/fpu64\libc-musl.a(__printf_core.o)
 .debug_str     0x0000000000006eb6      0x31b f:/microchip/xc32/v4.35/bin/bin/../../lib/gcc/pic32mx/8.3.1/../../../../pic32mx/lib/fpu64\libc-musl.a(atoi.o)
 .debug_str     0x00000000000071d1      0x328 f:/microchip/xc32/v4.35/bin/bin/../../lib/gcc/pic32mx/8.3.1/../../../../pic32mx/lib/fpu64\libc-musl.a(memcpy.o)
 .debug_str     0x00000000000074f9      0x314 f:/microchip/xc32/v4.35/bin/bin/../../lib/gcc/pic32mx/8.3.1/../../../../pic32mx/lib/fpu64\libc-musl.a(memset.o)
 .debug_str     0x000000000000780d      0x348 f:/microchip/xc32/v4.35/bin/bin/../../lib/gcc/pic32mx/8.3.1/../../../../pic32mx/lib/fpu64\libc-musl.a(tolower.o)
 .debug_str     0x0000000000007b55      0x396 f:/microchip/xc32/v4.35/bin/bin/../../lib/gcc/pic32mx/8.3.1/../../../../pic32mx/lib/fpu64\libc-musl.a(__int_vsprintf.o)
 .debug_str     0x0000000000007eeb      0x39e f:/microchip/xc32/v4.35/bin/bin/../../lib/gcc/pic32mx/8.3.1/../../../../pic32mx/lib/fpu64\libc-musl.a(__cvt_u.o)
 .debug_str     0x0000000000008289      0x3b0 f:/microchip/xc32/v4.35/bin/bin/../../lib/gcc/pic32mx/8.3.1/../../../../pic32mx/lib/fpu64\libc-musl.a(__pop_float.o)
 .debug_str     0x0000000000008639      0x3de f:/microchip/xc32/v4.35/bin/bin/../../lib/gcc/pic32mx/8.3.1/../../../../pic32mx/lib/fpu64\libc-musl.a(__int_vsnprintf.o)
 .debug_str     0x0000000000008a17      0x3d9 f:/microchip/xc32/v4.35/bin/bin/../../lib/gcc/pic32mx/8.3.1/../../../../pic32mx/lib/fpu64\libc-musl.a(__int_vfprintf.o)
 .debug_str     0x0000000000008df0      0x40b f:/microchip/xc32/v4.35/bin/bin/../../lib/gcc/pic32mx/8.3.1/fpu64\libgcc.a(_udivdi3.o)
 .debug_str     0x00000000000091fb      0x40b f:/microchip/xc32/v4.35/bin/bin/../../lib/gcc/pic32mx/8.3.1/fpu64\libgcc.a(_umoddi3.o)
 .debug_str     0x0000000000009606      0x340 f:/microchip/xc32/v4.35/bin/bin/../../lib/gcc/pic32mx/8.3.1/../../../../pic32mx/lib/fpu64\libpic32.a(errno.o)

.debug_loc      0x0000000000000000     0x2dbe
 *.elf(.debug_loc)
 *(.debug_loc)
 .debug_loc     0x0000000000000000      0xb60 f:/microchip/xc32/v4.35/bin/bin/../../lib/gcc/pic32mx/8.3.1/fpu64\libgcc.a(_divdi3.o)
 .debug_loc     0x0000000000000b60       0x5f f:/microchip/xc32/v4.35/bin/bin/../../lib/gcc/pic32mx/8.3.1/../../../../pic32mx/lib/fpu64\libc-musl.a(__sio_sprintf_dn.o)
 .debug_loc     0x0000000000000bbf      0x241 f:/microchip/xc32/v4.35/bin/bin/../../lib/gcc/pic32mx/8.3.1/../../../../pic32mx/lib/fpu64\libc-musl.a(__fmt_d.o)
 .debug_loc     0x0000000000000e00       0x40 f:/microchip/xc32/v4.35/bin/bin/../../lib/gcc/pic32mx/8.3.1/../../../../pic32mx/lib/fpu64\libc-musl.a(__pop_ptr.o)
 .debug_loc     0x0000000000000e40      0x56c f:/microchip/xc32/v4.35/bin/bin/../../lib/gcc/pic32mx/8.3.1/../../../../pic32mx/lib/fpu64\libc-musl.a(__printf_core.o)
 .debug_loc     0x00000000000013ac       0xbe f:/microchip/xc32/v4.35/bin/bin/../../lib/gcc/pic32mx/8.3.1/../../../../pic32mx/lib/fpu64\libc-musl.a(atoi.o)
 .debug_loc     0x000000000000146a       0xd6 f:/microchip/xc32/v4.35/bin/bin/../../lib/gcc/pic32mx/8.3.1/../../../../pic32mx/lib/fpu64\libc-musl.a(memcpy.o)
 .debug_loc     0x0000000000001540       0xb6 f:/microchip/xc32/v4.35/bin/bin/../../lib/gcc/pic32mx/8.3.1/../../../../pic32mx/lib/fpu64\libc-musl.a(memset.o)
 .debug_loc     0x00000000000015f6       0x89 f:/microchip/xc32/v4.35/bin/bin/../../lib/gcc/pic32mx/8.3.1/../../../../pic32mx/lib/fpu64\libc-musl.a(__int_vsprintf.o)
 .debug_loc     0x000000000000167f      0x1fe f:/microchip/xc32/v4.35/bin/bin/../../lib/gcc/pic32mx/8.3.1/../../../../pic32mx/lib/fpu64\libc-musl.a(__cvt_u.o)
 .debug_loc     0x000000000000187d      0x113 f:/microchip/xc32/v4.35/bin/bin/../../lib/gcc/pic32mx/8.3.1/../../../../pic32mx/lib/fpu64\libc-musl.a(__int_vsnprintf.o)
 .debug_loc     0x0000000000001990       0x9f f:/microchip/xc32/v4.35/bin/bin/../../lib/gcc/pic32mx/8.3.1/../../../../pic32mx/lib/fpu64\libc-musl.a(__int_vfprintf.o)
 .debug_loc     0x0000000000001a2f      0x9f5 f:/microchip/xc32/v4.35/bin/bin/../../lib/gcc/pic32mx/8.3.1/fpu64\libgcc.a(_udivdi3.o)
 .debug_loc     0x0000000000002424      0x99a f:/microchip/xc32/v4.35/bin/bin/../../lib/gcc/pic32mx/8.3.1/fpu64\libgcc.a(_umoddi3.o)

.debug_macinfo
 *.elf(.debug_macinfo)
 *(.debug_macinfo)

.debug_weaknames
 *.elf(.debug_weaknames)
 *(.debug_weaknames)

.debug_funcnames
 *.elf(.debug_funcnames)
 *(.debug_funcnames)

.debug_typenames
 *.elf(.debug_typenames)
 *(.debug_typenames)

.debug_varnames
 *.elf(.debug_varnames)
 *(.debug_varnames)

.debug_pubtypes
 *.elf(.debug_pubtypes)
 *(.debug_pubtypes)

.debug_ranges   0x0000000000000000      0x958
 *.elf(.debug_ranges)
 *(.debug_ranges)
 .debug_ranges  0x0000000000000000       0x10 build/default/production/_ext/60165520/plib_clk.o
 .debug_ranges  0x0000000000000010       0x50 build/default/production/_ext/1249264884/plib_coretimer.o
 .debug_ranges  0x0000000000000060       0x80 build/default/production/_ext/1865161661/plib_dmac.o
 .debug_ranges  0x00000000000000e0       0x58 build/default/production/_ext/1865200349/plib_evic.o
 .debug_ranges  0x0000000000000138       0x80 build/default/production/_ext/1865254177/plib_gpio.o
 .debug_ranges  0x00000000000001b8       0xc0 build/default/production/_ext/513455433/plib_i2c1_master.o
 .debug_ranges  0x0000000000000278       0x60 build/default/production/_ext/60181895/plib_tmr2.o
 .debug_ranges  0x00000000000002d8       0xa0 build/default/production/_ext/1865657120/plib_uart2.o
 .debug_ranges  0x0000000000000378       0x18 build/default/production/_ext/163028504/xc32_monitor.o
 .debug_ranges  0x0000000000000390       0x10 build/default/production/_ext/1171490990/initialization.o
 .debug_ranges  0x00000000000003a0       0x48 build/default/production/_ext/1171490990/interrupts.o
 .debug_ranges  0x00000000000003e8       0x28 build/default/production/_ext/1171490990/exceptions.o
 .debug_ranges  0x0000000000000410       0x60 build/default/production/_ext/1360937237/main.o
 .debug_ranges  0x0000000000000470       0x80 build/default/production/_ext/1360937237/bme280_driver.o
 .debug_ranges  0x00000000000004f0       0xc0 f:/microchip/xc32/v4.35/bin/bin/../../lib/gcc/pic32mx/8.3.1/fpu64\libgcc.a(_divdi3.o)
 .debug_ranges  0x00000000000005b0       0x10 f:/microchip/xc32/v4.35/bin/bin/../../lib/gcc/pic32mx/8.3.1/../../../../pic32mx/lib/fpu64\libpic32.a(default-on-reset.o)
 .debug_ranges  0x00000000000005c0       0x10 f:/microchip/xc32/v4.35/bin/bin/../../lib/gcc/pic32mx/8.3.1/../../../../pic32mx/lib/fpu64\libpic32.a(default-on-bootstrap.o)
 .debug_ranges  0x00000000000005d0       0x10 f:/microchip/xc32/v4.35/bin/bin/../../lib/gcc/pic32mx/8.3.1/../../../../pic32mx/lib/fpu64\libpic32.a(defaultinterrupt.o)
 .debug_ranges  0x00000000000005e0       0x18 f:/microchip/xc32/v4.35/bin/bin/../../lib/gcc/pic32mx/8.3.1/../../../../pic32mx/lib/fpu64\libc-musl.a(__sio_sprintf_dn.o)
 .debug_ranges  0x00000000000005f8       0x10 f:/microchip/xc32/v4.35/bin/bin/../../lib/gcc/pic32mx/8.3.1/../../../../pic32mx/lib/fpu64\libc-musl.a(__fmt_d.o)
 .debug_ranges  0x0000000000000608       0x10 f:/microchip/xc32/v4.35/bin/bin/../../lib/gcc/pic32mx/8.3.1/../../../../pic32mx/lib/fpu64\libc-musl.a(__pop_int.o)
 .debug_ranges  0x0000000000000618       0x10 f:/microchip/xc32/v4.35/bin/bin/../../lib/gcc/pic32mx/8.3.1/../../../../pic32mx/lib/fpu64\libc-musl.a(__pop_ptr.o)
 .debug_ranges  0x0000000000000628       0xe8 f:/microchip/xc32/v4.35/bin/bin/../../lib/gcc/pic32mx/8.3.1/../../../../pic32mx/lib/fpu64\libc-musl.a(__printf_core.o)
 .debug_ranges  0x0000000000000710       0x28 f:/microchip/xc32/v4.35/bin/bin/../../lib/gcc/pic32mx/8.3.1/../../../../pic32mx/lib/fpu64\libc-musl.a(atoi.o)
 .debug_ranges  0x0000000000000738       0x10 f:/microchip/xc32/v4.35/bin/bin/../../lib/gcc/pic32mx/8.3.1/../../../../pic32mx/lib/fpu64\libc-musl.a(memcpy.o)
 .debug_ranges  0x0000000000000748       0x10 f:/microchip/xc32/v4.35/bin/bin/../../lib/gcc/pic32mx/8.3.1/../../../../pic32mx/lib/fpu64\libc-musl.a(memset.o)
 .debug_ranges  0x0000000000000758       0x18 f:/microchip/xc32/v4.35/bin/bin/../../lib/gcc/pic32mx/8.3.1/../../../../pic32mx/lib/fpu64\libc-musl.a(tolower.o)
 .debug_ranges  0x0000000000000770       0x10 f:/microchip/xc32/v4.35/bin/bin/../../lib/gcc/pic32mx/8.3.1/../../../../pic32mx/lib/fpu64\libc-musl.a(__int_vsprintf.o)
 .debug_ranges  0x0000000000000780       0x10 f:/microchip/xc32/v4.35/bin/bin/../../lib/gcc/pic32mx/8.3.1/../../../../pic32mx/lib/fpu64\libc-musl.a(__cvt_u.o)
 .debug_ranges  0x0000000000000790       0x10 f:/microchip/xc32/v4.35/bin/bin/../../lib/gcc/pic32mx/8.3.1/../../../../pic32mx/lib/fpu64\libc-musl.a(__pop_float.o)
 .debug_ranges  0x00000000000007a0       0x10 f:/microchip/xc32/v4.35/bin/bin/../../lib/gcc/pic32mx/8.3.1/../../../../pic32mx/lib/fpu64\libc-musl.a(__int_vsnprintf.o)
 .debug_ranges  0x00000000000007b0       0x10 f:/microchip/xc32/v4.35/bin/bin/../../lib/gcc/pic32mx/8.3.1/../../../../pic32mx/lib/fpu64\libc-musl.a(__int_vfprintf.o)
 .debug_ranges  0x00000000000007c0       0xd8 f:/microchip/xc32/v4.35/bin/bin/../../lib/gcc/pic32mx/8.3.1/fpu64\libgcc.a(_udivdi3.o)
 .debug_ranges  0x0000000000000898       0xc0 f:/microchip/xc32/v4.35/bin/bin/../../lib/gcc/pic32mx/8.3.1/fpu64\libgcc.a(_umoddi3.o)

.gnu.attributes
                0x0000000000000000       0x10
 *(.gnu.attributes)
 .gnu.attributes
                0x0000000000000000       0x10 f:/microchip/xc32/v4.35/bin/bin/../../lib/gcc/pic32mx/8.3.1/../../../../pic32mx/lib/fpu64\debug-exception-return.o
 .gnu.attributes
                0x0000000000000010       0x10 build/default/production/_ext/60165520/plib_clk.o
 .gnu.attributes
                0x0000000000000020       0x10 build/default/production/_ext/1249264884/plib_coretimer.o
 .gnu.attributes
                0x0000000000000030       0x10 build/default/production/_ext/1865161661/plib_dmac.o
 .gnu.attributes
                0x0000000000000040       0x10 build/default/production/_ext/1865200349/plib_evic.o
 .gnu.attributes
                0x0000000000000050       0x10 build/default/production/_ext/1865254177/plib_gpio.o
 .gnu.attributes
                0x0000000000000060       0x10 build/default/production/_ext/513455433/plib_i2c1_master.o
 .gnu.attributes
                0x0000000000000070       0x10 build/default/production/_ext/60181895/plib_tmr2.o
 .gnu.attributes
                0x0000000000000080       0x10 build/default/production/_ext/1865657120/plib_uart2.o
 .gnu.attributes
                0x0000000000000090       0x10 build/default/production/_ext/163028504/xc32_monitor.o
 .gnu.attributes
                0x00000000000000a0       0x10 build/default/production/_ext/1171490990/initialization.o
 .gnu.attributes
                0x00000000000000b0       0x10 build/default/production/_ext/1171490990/interrupts.o
 .gnu.attributes
                0x00000000000000c0       0x10 build/default/production/_ext/1171490990/exceptions.o
 .gnu.attributes
                0x00000000000000d0       0x10 build/default/production/_ext/1360937237/main.o
 .gnu.attributes
                0x00000000000000e0       0x10 build/default/production/_ext/1360937237/bme280_driver.o
 .gnu.attributes
                0x00000000000000f0       0x10 C:\Users\huope\AppData\Local\Temp\cc8UKOfV.o
 .gnu.attributes
                0x0000000000000100       0x10 C:\Users\huope\AppData\Local\Temp\ccDssib2.o
 .gnu.attributes
                0x0000000000000110       0x10 C:\Users\huope\AppData\Local\Temp\ccEw4oan.o
 .gnu.attributes
                0x0000000000000120       0x10 C:\Users\huope\AppData\Local\Temp\ccNW7OMV.o
 .gnu.attributes
                0x0000000000000130       0x10 f:/microchip/xc32/v4.35/bin/bin/../../lib/gcc/pic32mx/8.3.1/../../../../pic32mx/lib/fpu64\pic32_software_reset.o
 .gnu.attributes
                0x0000000000000140       0x10 f:/microchip/xc32/v4.35/bin/bin/../../lib/gcc/pic32mx/8.3.1/fpu64\libgcc.a(_divdi3.o)
 .gnu.attributes
                0x0000000000000150       0x10 f:/microchip/xc32/v4.35/bin/bin/../../lib/gcc/pic32mx/8.3.1/../../../../pic32mx/lib/fpu64\libpic32.a(strlen.o)
 .gnu.attributes
                0x0000000000000160       0x10 f:/microchip/xc32/v4.35/bin/bin/../../lib/gcc/pic32mx/8.3.1/../../../../pic32mx/lib/fpu64\libpic32.a(default-on-reset.o)
 .gnu.attributes
                0x0000000000000170       0x10 f:/microchip/xc32/v4.35/bin/bin/../../lib/gcc/pic32mx/8.3.1/../../../../pic32mx/lib/fpu64\libpic32.a(default-on-bootstrap.o)
 .gnu.attributes
                0x0000000000000180       0x10 f:/microchip/xc32/v4.35/bin/bin/../../lib/gcc/pic32mx/8.3.1/../../../../pic32mx/lib/fpu64\libpic32.a(default-nmi-handler.o)
 .gnu.attributes
                0x0000000000000190       0x10 f:/microchip/xc32/v4.35/bin/bin/../../lib/gcc/pic32mx/8.3.1/../../../../pic32mx/lib/fpu64\libpic32.a(pic32_data_init_core.o)
 .gnu.attributes
                0x00000000000001a0       0x10 f:/microchip/xc32/v4.35/bin/bin/../../lib/gcc/pic32mx/8.3.1/../../../../pic32mx/lib/fpu64\libpic32.a(pic32_init_cache.o)
 .gnu.attributes
                0x00000000000001b0       0x10 f:/microchip/xc32/v4.35/bin/bin/../../lib/gcc/pic32mx/8.3.1/../../../../pic32mx/lib/fpu64\libpic32.a(pic32_init_tlb_ebi_sqi.o)
 .gnu.attributes
                0x00000000000001c0       0x10 f:/microchip/xc32/v4.35/bin/bin/../../lib/gcc/pic32mx/8.3.1/../../../../pic32mx/lib/fpu64\libpic32.a(general-exception.o)
 .gnu.attributes
                0x00000000000001d0       0x10 f:/microchip/xc32/v4.35/bin/bin/../../lib/gcc/pic32mx/8.3.1/../../../../pic32mx/lib/fpu64\libpic32.a(cache-err-exception.o)
 .gnu.attributes
                0x00000000000001e0       0x10 f:/microchip/xc32/v4.35/bin/bin/../../lib/gcc/pic32mx/8.3.1/../../../../pic32mx/lib/fpu64\libpic32.a(simple-tlb-refill-exception.o)
 .gnu.attributes
                0x00000000000001f0       0x10 f:/microchip/xc32/v4.35/bin/bin/../../lib/gcc/pic32mx/8.3.1/../../../../pic32mx/lib/fpu64\libpic32.a(defaultinterrupt.o)
 .gnu.attributes
                0x0000000000000200       0x10 f:/microchip/xc32/v4.35/bin/bin/../../lib/gcc/pic32mx/8.3.1/../../../../pic32mx/lib/fpu64\libc-musl.a(__sio_sprintf_dn.o)
 .gnu.attributes
                0x0000000000000210       0x10 f:/microchip/xc32/v4.35/bin/bin/../../lib/gcc/pic32mx/8.3.1/../../../../pic32mx/lib/fpu64\libc-musl.a(__fmt_d.o)
 .gnu.attributes
                0x0000000000000220       0x10 f:/microchip/xc32/v4.35/bin/bin/../../lib/gcc/pic32mx/8.3.1/../../../../pic32mx/lib/fpu64\libc-musl.a(__pop_int.o)
 .gnu.attributes
                0x0000000000000230       0x10 f:/microchip/xc32/v4.35/bin/bin/../../lib/gcc/pic32mx/8.3.1/../../../../pic32mx/lib/fpu64\libc-musl.a(__pop_ptr.o)
 .gnu.attributes
                0x0000000000000240       0x10 f:/microchip/xc32/v4.35/bin/bin/../../lib/gcc/pic32mx/8.3.1/../../../../pic32mx/lib/fpu64\libc-musl.a(__printf_core.o)
 .gnu.attributes
                0x0000000000000250       0x10 f:/microchip/xc32/v4.35/bin/bin/../../lib/gcc/pic32mx/8.3.1/../../../../pic32mx/lib/fpu64\libc-musl.a(atoi.o)
 .gnu.attributes
                0x0000000000000260       0x10 f:/microchip/xc32/v4.35/bin/bin/../../lib/gcc/pic32mx/8.3.1/../../../../pic32mx/lib/fpu64\libc-musl.a(memcpy.o)
 .gnu.attributes
                0x0000000000000270       0x10 f:/microchip/xc32/v4.35/bin/bin/../../lib/gcc/pic32mx/8.3.1/../../../../pic32mx/lib/fpu64\libc-musl.a(memset.o)
 .gnu.attributes
                0x0000000000000280       0x10 f:/microchip/xc32/v4.35/bin/bin/../../lib/gcc/pic32mx/8.3.1/../../../../pic32mx/lib/fpu64\libc-musl.a(tolower.o)
 .gnu.attributes
                0x0000000000000290       0x10 f:/microchip/xc32/v4.35/bin/bin/../../lib/gcc/pic32mx/8.3.1/../../../../pic32mx/lib/fpu64\libc-musl.a(__int_vsprintf.o)
 .gnu.attributes
                0x00000000000002a0       0x10 f:/microchip/xc32/v4.35/bin/bin/../../lib/gcc/pic32mx/8.3.1/../../../../pic32mx/lib/fpu64\libc-musl.a(__cvt_u.o)
 .gnu.attributes
                0x00000000000002b0       0x10 f:/microchip/xc32/v4.35/bin/bin/../../lib/gcc/pic32mx/8.3.1/../../../../pic32mx/lib/fpu64\libc-musl.a(__pop_float.o)
 .gnu.attributes
                0x00000000000002c0       0x10 f:/microchip/xc32/v4.35/bin/bin/../../lib/gcc/pic32mx/8.3.1/../../../../pic32mx/lib/fpu64\libc-musl.a(__int_vsnprintf.o)
 .gnu.attributes
                0x00000000000002d0       0x10 f:/microchip/xc32/v4.35/bin/bin/../../lib/gcc/pic32mx/8.3.1/../../../../pic32mx/lib/fpu64\libc-musl.a(__int_vfprintf.o)
 .gnu.attributes
                0x00000000000002e0       0x10 f:/microchip/xc32/v4.35/bin/bin/../../lib/gcc/pic32mx/8.3.1/fpu64\libgcc.a(_udivdi3.o)
 .gnu.attributes
                0x00000000000002f0       0x10 f:/microchip/xc32/v4.35/bin/bin/../../lib/gcc/pic32mx/8.3.1/fpu64\libgcc.a(_umoddi3.o)
 .gnu.attributes
                0x0000000000000300       0x10 f:/microchip/xc32/v4.35/bin/bin/../../lib/gcc/pic32mx/8.3.1/../../../../pic32mx/lib/fpu64\libpic32.a(errno.o)
 .gnu.attributes
                0x0000000000000310       0x10 f:/microchip/xc32/v4.35/bin/bin/../../lib/gcc/pic32mx/8.3.1/../../../../pic32mx/lib/fpu64\libpic32.a(pic32_data_init_clear.o)
 .gnu.attributes
                0x0000000000000320       0x10 f:/microchip/xc32/v4.35/bin/bin/../../lib/gcc/pic32mx/8.3.1/../../../../pic32mx/lib/fpu64\libpic32.a(pic32_data_init_copy.o)
                0x000000009d000000                PROVIDE (__pic32_init_cache_program_base_addr = 0x9d000000)
                0x0000000080000000                PROVIDE (__pic32_init_cache_data_base_addr = 0x80000000)
                0x00000000d0000000                PROVIDE (__pic32_init_sqi_kseg2_virtual_base_addr = 0xd0000000)
                0x0000000030000000                PROVIDE (__pic32_init_sqi_kseg2_physical_base_addr = 0x30000000)
                0x000000000000001f                PROVIDE (__pic32_init_sqi_kseg2_entrylo0_bitset = 0x1f)
                0x00000000d0000000                __pic32_tlb_0_entryhi = __pic32_init_sqi_kseg2_virtual_base_addr
                0x0000000000c0001f                __pic32_tlb_0_entrylo0 = ((__pic32_init_sqi_kseg2_physical_base_addr >> 0x6) | __pic32_init_sqi_kseg2_entrylo0_bitset)
                0x0000000000c4001f                __pic32_tlb_0_entrylo1 = (__pic32_tlb_0_entrylo0 | ((__pic32_init_sqi_kseg2_physical_base_addr + 0x1000000) >> 0x6))
                0x00000000d2000000                __pic32_tlb_1_entryhi = (__pic32_init_sqi_kseg2_virtual_base_addr + 0x2000000)
                0x0000000000c8001f                __pic32_tlb_1_entrylo0 = (((__pic32_init_sqi_kseg2_physical_base_addr + 0x2000000) >> 0x6) | __pic32_init_sqi_kseg2_entrylo0_bitset)
                0x0000000000cc001f                __pic32_tlb_1_entrylo1 = (__pic32_tlb_1_entrylo0 | 0x40000)
                0x00000000f0000000                PROVIDE (__pic32_init_sqi_kseg3_virtual_base_addr = 0xf0000000)
                0x0000000030000000                PROVIDE (__pic32_init_sqi_kseg3_physical_base_addr = 0x30000000)
                0x0000000000000017                PROVIDE (__pic32_init_sqi_kseg3_entrylo0_bitset = 0x17)
                0x00000000f0000000                __pic32_tlb_2_entryhi = __pic32_init_sqi_kseg3_virtual_base_addr
                0x0000000000c00017                __pic32_tlb_2_entrylo0 = ((__pic32_init_sqi_kseg3_physical_base_addr >> 0x6) | __pic32_init_sqi_kseg3_entrylo0_bitset)
                0x0000000000c40017                __pic32_tlb_2_entrylo1 = (__pic32_tlb_2_entrylo0 | ((__pic32_init_sqi_kseg3_physical_base_addr + 0x1000000) >> 0x6))
                0x00000000f2000000                __pic32_tlb_3_entryhi = (__pic32_init_sqi_kseg3_virtual_base_addr + 0x2000000)
                0x0000000000c80017                __pic32_tlb_3_entrylo0 = (((__pic32_init_sqi_kseg3_physical_base_addr + 0x2000000) >> 0x6) | __pic32_init_sqi_kseg3_entrylo0_bitset)
                0x0000000000cc0017                __pic32_tlb_3_entrylo1 = (__pic32_tlb_3_entrylo0 | 0x40000)

.tlb_init_values
                0x00000000bfc00670       0x30
                0x00000000bfc00670                . = ALIGN (0x4)
                0x00000000bfc00670                __pic32_tlb_init_values_begin = ABSOLUTE (.)
                0x00000000bfc00670        0x4 LONG 0xd0000000 __pic32_tlb_0_entryhi
                0x00000000bfc00674        0x4 LONG 0xc0001f __pic32_tlb_0_entrylo0
                0x00000000bfc00678        0x4 LONG 0xc4001f __pic32_tlb_0_entrylo1
                0x00000000bfc0067c        0x4 LONG 0xd2000000 __pic32_tlb_1_entryhi
                0x00000000bfc00680        0x4 LONG 0xc8001f __pic32_tlb_1_entrylo0
                0x00000000bfc00684        0x4 LONG 0xcc001f __pic32_tlb_1_entrylo1
                0x00000000bfc00688        0x4 LONG 0xf0000000 __pic32_tlb_2_entryhi
                0x00000000bfc0068c        0x4 LONG 0xc00017 __pic32_tlb_2_entrylo0
                0x00000000bfc00690        0x4 LONG 0xc40017 __pic32_tlb_2_entrylo1
                0x00000000bfc00694        0x4 LONG 0xf2000000 __pic32_tlb_3_entryhi
                0x00000000bfc00698        0x4 LONG 0xc80017 __pic32_tlb_3_entrylo0
                0x00000000bfc0069c        0x4 LONG 0xcc0017 __pic32_tlb_3_entrylo1
                0x00000000bfc006a0                __pic32_tlb_init_values_end = ABSOLUTE (.)
                0x00000000bfc00674                __pic32_tlb_init_values_count = 0x4
                0x0000000000000200                _min_heap_size = 0x200
LOAD C:\Users\huope\AppData\Local\Temp\cc8UKOfV.o
LOAD C:\Users\huope\AppData\Local\Temp\ccDssib2.o
LOAD C:\Users\huope\AppData\Local\Temp\ccEw4oan.o
LOAD C:\Users\huope\AppData\Local\Temp\ccNW7OMV.o
LOAD f:/microchip/xc32/v4.35/bin/bin/../../lib/gcc/pic32mx/8.3.1/../../../../pic32mx/lib/fpu64\pic32_software_reset.o
LOAD f:/microchip/xc32/v4.35/bin/bin/../../lib/gcc/pic32mx/8.3.1/fpu64\libgcc.a
START GROUP
LOAD f:/microchip/xc32/v4.35/bin/bin/../../lib/gcc/pic32mx/8.3.1/../../../../pic32mx/lib/fpu64\libpic32.a
LOAD f:/microchip/xc32/v4.35/bin/bin/../../lib/gcc/pic32mx/8.3.1/../../../../pic32mx/lib/fpu64\libdebug.a
LOAD f:/microchip/xc32/v4.35/bin/bin/../../lib/gcc/pic32mx/8.3.1/../../../../pic32mx/lib/fpu64\libc-musl.a
LOAD f:/microchip/xc32/v4.35/bin/bin/../../lib/gcc/pic32mx/8.3.1/../../../../pic32mx/lib/fpu64\libm-musl.a
LOAD f:/microchip/xc32/v4.35/bin/bin/../../lib/gcc/pic32mx/8.3.1/../../../../pic32mx/lib/fpu64\libdspr2.a
LOAD f:/microchip/xc32/v4.35/bin/bin/../../lib/gcc/pic32mx/8.3.1/../../../../pic32mx/lib/fpu64\libdsp.a
LOAD f:/microchip/xc32/v4.35/bin/bin/../../lib/gcc/pic32mx/8.3.1/fpu64\libgcc.a
END GROUP
LOAD f:/microchip/xc32/v4.35/bin/bin/../../lib/gcc/pic32mx/8.3.1/fpu64\libgcc.a
OUTPUT(dist/default/production/PIC32MZ_Production.X.production.elf elf32-tradlittlemips)
LOAD data_init
LOAD stack

.reginfo        0x0000000000000000       0x18
 .reginfo       0x0000000000000000       0x18 f:/microchip/xc32/v4.35/bin/bin/../../lib/gcc/pic32mx/8.3.1/../../../../pic32mx/lib/fpu64\debug-exception-return.o

.stack          0x00000000800004f8      0x400
 .stack         0x00000000800004f8      0x400 stack

.__vector_offset_BF810540_data
                0x00000000bf810540       0xe8
 .__vector_offset_BF810540_data
                0x00000000bf810540       0xe8 C:\Users\huope\AppData\Local\Temp\ccEw4oan.o

.__vector_offset_BF81079C_data
                0x00000000bf81079c       0x64
 .__vector_offset_BF81079C_data
                0x00000000bf81079c       0x64 C:\Users\huope\AppData\Local\Temp\ccEw4oan.o

.__vector_offset_BF810740_data
                0x00000000bf810740       0x50
 .__vector_offset_BF810740_data
                0x00000000bf810740       0x50 C:\Users\huope\AppData\Local\Temp\ccEw4oan.o

.__vector_offset_BF81062C_data
                0x00000000bf81062c       0x4c
 .__vector_offset_BF81062C_data
                0x00000000bf81062c       0x4c C:\Users\huope\AppData\Local\Temp\ccEw4oan.o

.__vector_offset_BF8106F4_data
                0x00000000bf8106f4       0x24
 .__vector_offset_BF8106F4_data
                0x00000000bf8106f4       0x24 C:\Users\huope\AppData\Local\Temp\ccEw4oan.o

.__vector_offset_BF81071C_data
                0x00000000bf81071c       0x18
 .__vector_offset_BF81071C_data
                0x00000000bf81071c       0x18 C:\Users\huope\AppData\Local\Temp\ccEw4oan.o

.__vector_offset_BF81080C_data
                0x00000000bf81080c       0x18
 .__vector_offset_BF81080C_data
                0x00000000bf81080c       0x18 C:\Users\huope\AppData\Local\Temp\ccEw4oan.o

.__vector_offset_BF810874_data
                0x00000000bf810874       0x18
 .__vector_offset_BF810874_data
                0x00000000bf810874       0x18 C:\Users\huope\AppData\Local\Temp\ccEw4oan.o

.__vector_offset_BF8106D8_data
                0x00000000bf8106d8       0x14
 .__vector_offset_BF8106D8_data
                0x00000000bf8106d8       0x14 C:\Users\huope\AppData\Local\Temp\ccEw4oan.o

.__vector_offset_BF810858_data
                0x00000000bf810858       0x14
 .__vector_offset_BF810858_data
                0x00000000bf810858       0x14 C:\Users\huope\AppData\Local\Temp\ccEw4oan.o

.__vector_offset_BF810830_data
                0x00000000bf810830        0xc
 .__vector_offset_BF810830_data
                0x00000000bf810830        0xc C:\Users\huope\AppData\Local\Temp\ccEw4oan.o

.__vector_offset_BF810840_data
                0x00000000bf810840        0xc
 .__vector_offset_BF810840_data
                0x00000000bf810840        0xc C:\Users\huope\AppData\Local\Temp\ccEw4oan.o

.__vector_offset_BF810850_data
                0x00000000bf810850        0x4
 .__vector_offset_BF810850_data
                0x00000000bf810850        0x4 C:\Users\huope\AppData\Local\Temp\ccEw4oan.o

.__vector_offset_BF810894_data
                0x00000000bf810894        0x4
 .__vector_offset_BF810894_data
                0x00000000bf810894        0x4 C:\Users\huope\AppData\Local\Temp\ccEw4oan.o

.bss.BME280SensorData
                0x000000008000004c       0xcc
 .bss.BME280SensorData
                0x000000008000004c       0xcc build/default/production/_ext/1360937237/main.o

.bss.gDMAChannelObj
                0x0000000080000118       0x80
 .bss.gDMAChannelObj
                0x0000000080000118       0x80 build/default/production/_ext/1865161661/plib_dmac.o

.bss.uartTxBuffer
                0x00000000800001a0       0x64
 .bss.uartTxBuffer
                0x00000000800001a0       0x64 build/default/production/_ext/1360937237/main.o

.bss.BME280DriverData
                0x0000000080000204       0x40
 .bss.BME280DriverData
                0x0000000080000204       0x40 build/default/production/_ext/1360937237/bme280_driver.o

.bss.uart2Obj   0x0000000080000244       0x38
 .bss.uart2Obj  0x0000000080000244       0x38 build/default/production/_ext/1865657120/plib_uart2.o

.bss.i2c1Obj    0x000000008000027c       0x34
 .bss.i2c1Obj   0x000000008000027c       0x34 build/default/production/_ext/513455433/plib_i2c1_master.o

.bss.data       0x00000000800002b0       0x20
 .bss.data      0x00000000800002b0       0x20 build/default/production/_ext/1360937237/main.o
                0x00000000800002b0                data

.bss.portPinCbObj
                0x00000000800002d0        0xc
 .bss.portPinCbObj
                0x00000000800002d0        0xc build/default/production/_ext/1865254177/plib_gpio.o

.bss.errno      0x0000000080000198        0x4
 .bss.errno     0x0000000080000198        0x4 f:/microchip/xc32/v4.35/bin/bin/../../lib/gcc/pic32mx/8.3.1/../../../../pic32mx/lib/fpu64\libpic32.a(errno.o)
                0x0000000080000198                errno

._debug_exception
                0x00000000bfc00480       0x2c
 ._debug_exception
                0x00000000bfc00480       0x2c f:/microchip/xc32/v4.35/bin/bin/../../lib/gcc/pic32mx/8.3.1/../../../../pic32mx/lib/fpu64\debug-exception-return.o
                0x00000000bfc00480                __DbgExecReturn

.config_BFC0FFF0.__config_BFC0FFF0
                0x00000000bfc0fff0        0x4
 .config_BFC0FFF0.__config_BFC0FFF0
                0x00000000bfc0fff0        0x4 build/default/production/_ext/1171490990/initialization.o
                0x00000000bfc0fff0                __config_BFC0FFF0

.config_BFC0FFDC.__config_BFC0FFDC
                0x00000000bfc0ffdc        0x4
 .config_BFC0FFDC.__config_BFC0FFDC
                0x00000000bfc0ffdc        0x4 build/default/production/_ext/1171490990/initialization.o
                0x00000000bfc0ffdc                __config_BFC0FFDC

.config_BFC0FFCC.__config_BFC0FFCC
                0x00000000bfc0ffcc        0x4
 .config_BFC0FFCC.__config_BFC0FFCC
                0x00000000bfc0ffcc        0x4 build/default/production/_ext/1171490990/initialization.o
                0x00000000bfc0ffcc                __config_BFC0FFCC

.config_BFC0FFC8.__config_BFC0FFC8
                0x00000000bfc0ffc8        0x4
 .config_BFC0FFC8.__config_BFC0FFC8
                0x00000000bfc0ffc8        0x4 build/default/production/_ext/1171490990/initialization.o
                0x00000000bfc0ffc8                __config_BFC0FFC8

.config_BFC0FFC4.__config_BFC0FFC4
                0x00000000bfc0ffc4        0x4
 .config_BFC0FFC4.__config_BFC0FFC4
                0x00000000bfc0ffc4        0x4 build/default/production/_ext/1171490990/initialization.o
                0x00000000bfc0ffc4                __config_BFC0FFC4

.config_BFC0FFC0.__config_BFC0FFC0
                0x00000000bfc0ffc0        0x4
 .config_BFC0FFC0.__config_BFC0FFC0
                0x00000000bfc0ffc0        0x4 build/default/production/_ext/1171490990/initialization.o
                0x00000000bfc0ffc0                __config_BFC0FFC0

.text.I2C1_TransferSM
                0x000000009d000288      0x754
 .text.I2C1_TransferSM
                0x000000009d000288      0x754 build/default/production/_ext/513455433/plib_i2c1_master.o

.text.BME280_CalibParams_Get
                0x000000009d0009dc      0x6fc
 .text.BME280_CalibParams_Get
                0x000000009d0009dc      0x6fc build/default/production/_ext/1360937237/bme280_driver.o
                0x000000009d0009dc                BME280_CalibParams_Get

.text.__printf_core
                0x000000009d0010d8      0x5a4
 .text.__printf_core
                0x000000009d0010d8      0x5a4 f:/microchip/xc32/v4.35/bin/bin/../../lib/gcc/pic32mx/8.3.1/../../../../pic32mx/lib/fpu64\libc-musl.a(__printf_core.o)
                0x000000009d0010d8                __printf_core

.dinit          0x000000009d00167c      0x450
 .dinit         0x000000009d00167c      0x450 data_init

.text           0x000000009d001acc      0x774
 .text          0x000000009d001acc      0x3bc f:/microchip/xc32/v4.35/bin/bin/../../lib/gcc/pic32mx/8.3.1/fpu64\libgcc.a(_udivdi3.o)
                0x000000009d001acc                __udivdi3
 .text          0x000000009d001e88      0x3b8 f:/microchip/xc32/v4.35/bin/bin/../../lib/gcc/pic32mx/8.3.1/fpu64\libgcc.a(_umoddi3.o)
                0x000000009d001e88                __umoddi3

.text.main      0x000000009d002240      0x354
 .text.main     0x000000009d002240      0x354 build/default/production/_ext/1360937237/main.o
                0x000000009d002240                main

.text.DMAC_ChannelSetAddresses
                0x000000009d002594      0x2a0
 .text.DMAC_ChannelSetAddresses
                0x000000009d002594      0x2a0 build/default/production/_ext/1865161661/plib_dmac.o

.text.TIMER_2_Handler
                0x000000009d002834      0x29c
 .text.TIMER_2_Handler
                0x000000009d002834      0x29c build/default/production/_ext/1171490990/interrupts.o
                0x000000009d002834                TIMER_2_Handler

.text.I2C1_BUS_Handler
                0x000000009d002ad0      0x29c
 .text.I2C1_BUS_Handler
                0x000000009d002ad0      0x29c build/default/production/_ext/1171490990/interrupts.o
                0x000000009d002ad0                I2C1_BUS_Handler

.text.I2C1_MASTER_Handler
                0x000000009d002d6c      0x29c
 .text.I2C1_MASTER_Handler
                0x000000009d002d6c      0x29c build/default/production/_ext/1171490990/interrupts.o
                0x000000009d002d6c                I2C1_MASTER_Handler

.text.CHANGE_NOTICE_B_Handler
                0x000000009d003008      0x29c
 .text.CHANGE_NOTICE_B_Handler
                0x000000009d003008      0x29c build/default/production/_ext/1171490990/interrupts.o
                0x000000009d003008                CHANGE_NOTICE_B_Handler

.text.DMA0_Handler
                0x000000009d0032a4      0x29c
 .text.DMA0_Handler
                0x000000009d0032a4      0x29c build/default/production/_ext/1171490990/interrupts.o
                0x000000009d0032a4                DMA0_Handler

.text.UART2_FAULT_Handler
                0x000000009d003540      0x29c
 .text.UART2_FAULT_Handler
                0x000000009d003540      0x29c build/default/production/_ext/1171490990/interrupts.o
                0x000000009d003540                UART2_FAULT_Handler

.text.UART2_RX_Handler
                0x000000009d0037dc      0x29c
 .text.UART2_RX_Handler
                0x000000009d0037dc      0x29c build/default/production/_ext/1171490990/interrupts.o
                0x000000009d0037dc                UART2_RX_Handler

.text.UART2_TX_Handler
                0x000000009d003a78      0x29c
 .text.UART2_TX_Handler
                0x000000009d003a78      0x29c build/default/production/_ext/1171490990/interrupts.o
                0x000000009d003a78                UART2_TX_Handler

.text.DMAC_ChannelTransfer
                0x000000009d003d14      0x25c
 .text.DMAC_ChannelTransfer
                0x000000009d003d14      0x25c build/default/production/_ext/1865161661/plib_dmac.o
                0x000000009d003d14                DMAC_ChannelTransfer

.text.PasswordDiscovery
                0x000000009d003f70      0x230
 .text.PasswordDiscovery
                0x000000009d003f70      0x230 build/default/production/_ext/1360937237/main.o
                0x000000009d003f70                PasswordDiscovery

.text.DMA0_InterruptHandler
                0x000000009d0041a0      0x1ac
 .text.DMA0_InterruptHandler
                0x000000009d0041a0      0x1ac build/default/production/_ext/1865161661/plib_dmac.o
                0x000000009d0041a0                DMA0_InterruptHandler

.text.UART2_RX_InterruptHandler
                0x000000009d00434c      0x1ac
 .text.UART2_RX_InterruptHandler
                0x000000009d00434c      0x1ac build/default/production/_ext/1865657120/plib_uart2.o
                0x000000009d00434c                UART2_RX_InterruptHandler

.text.UART2_TX_InterruptHandler
                0x000000009d0044f8      0x190
 .text.UART2_TX_InterruptHandler
                0x000000009d0044f8      0x190 build/default/production/_ext/1865657120/plib_uart2.o
                0x000000009d0044f8                UART2_TX_InterruptHandler

.text.BME280_ReadRawWeatherData
                0x000000009d004688      0x188
 .text.BME280_ReadRawWeatherData
                0x000000009d004688      0x188 build/default/production/_ext/1360937237/bme280_driver.o
                0x000000009d004688                BME280_ReadRawWeatherData

.text.__pop_int
                0x000000009d004810      0x188
 .text.__pop_int
                0x000000009d004810      0x188 f:/microchip/xc32/v4.35/bin/bin/../../lib/gcc/pic32mx/8.3.1/../../../../pic32mx/lib/fpu64\libc-musl.a(__pop_int.o)
                0x000000009d004810                __pop_int_needed
                0x000000009d004810                __pop_int

.text.BME280_SetOversampling
                0x000000009d004998      0x16c
 .text.BME280_SetOversampling
                0x000000009d004998      0x16c build/default/production/_ext/1360937237/bme280_driver.o
                0x000000009d004998                BME280_SetOversampling

.text           0x000000009d004b04      0x168
 .text          0x000000009d004b04      0x168 f:/microchip/xc32/v4.35/bin/bin/../../lib/gcc/pic32mx/8.3.1/../../../../pic32mx/lib/fpu64\libpic32.a(strlen.o)
                0x000000009d004b04                strlen

.text.GPIO_PinIntEnable
                0x000000009d004c6c      0x164
 .text.GPIO_PinIntEnable
                0x000000009d004c6c      0x164 build/default/production/_ext/1865254177/plib_gpio.o
                0x000000009d004c6c                GPIO_PinIntEnable

.text.CHANGE_NOTICE_B_InterruptHandler
                0x000000009d004dd0      0x154
 .text.CHANGE_NOTICE_B_InterruptHandler
                0x000000009d004dd0      0x154 build/default/production/_ext/1865254177/plib_gpio.o
                0x000000009d004dd0                CHANGE_NOTICE_B_InterruptHandler

.text.__fmt_d   0x000000009d004f24      0x150
 .text.__fmt_d  0x000000009d004f24      0x150 f:/microchip/xc32/v4.35/bin/bin/../../lib/gcc/pic32mx/8.3.1/../../../../pic32mx/lib/fpu64\libc-musl.a(__fmt_d.o)
                0x000000009d004f24                __fmt_d_needed
                0x000000009d004f24                __fmt_d

.text.__cvt_u   0x000000009d005074      0x13c
 .text.__cvt_u  0x000000009d005074      0x13c f:/microchip/xc32/v4.35/bin/bin/../../lib/gcc/pic32mx/8.3.1/../../../../pic32mx/lib/fpu64\libc-musl.a(__cvt_u.o)
                0x000000009d005074                __cvt_u

.text.GPIO_Initialize
                0x000000009d0051b0      0x128
 .text.GPIO_Initialize
                0x000000009d0051b0      0x128 build/default/production/_ext/1865254177/plib_gpio.o
                0x000000009d0051b0                GPIO_Initialize

.text.I2C1_WriteRead
                0x000000009d0052d8      0x128
 .text.I2C1_WriteRead
                0x000000009d0052d8      0x128 build/default/production/_ext/513455433/plib_i2c1_master.o
                0x000000009d0052d8                I2C1_WriteRead

.text.I2C1_Write
                0x000000009d005400      0x11c
 .text.I2C1_Write
                0x000000009d005400      0x11c build/default/production/_ext/513455433/plib_i2c1_master.o
                0x000000009d005400                I2C1_Write

.text.GPIO_PinInterruptCallbackRegister
                0x000000009d00551c      0x114
 .text.GPIO_PinInterruptCallbackRegister
                0x000000009d00551c      0x114 build/default/production/_ext/1865254177/plib_gpio.o
                0x000000009d00551c                GPIO_PinInterruptCallbackRegister

.text.UART2_Initialize
                0x000000009d005630      0x10c
 .text.UART2_Initialize
                0x000000009d005630      0x10c build/default/production/_ext/1865657120/plib_uart2.o
                0x000000009d005630                UART2_Initialize

.text.__pad     0x000000009d00573c      0x100
 .text.__pad    0x000000009d00573c      0x100 f:/microchip/xc32/v4.35/bin/bin/../../lib/gcc/pic32mx/8.3.1/../../../../pic32mx/lib/fpu64\libc-musl.a(__printf_core.o)
                0x000000009d00573c                __pad

.text.BME280_Compensate_T
                0x000000009d000010       0xf0
 .text.BME280_Compensate_T
                0x000000009d000010       0xf0 build/default/production/_ext/1360937237/bme280_driver.o

.text.__pop_ptr
                0x000000009d00583c       0xe4
 .text.__pop_ptr
                0x000000009d00583c       0xe4 f:/microchip/xc32/v4.35/bin/bin/../../lib/gcc/pic32mx/8.3.1/../../../../pic32mx/lib/fpu64\libc-musl.a(__pop_ptr.o)
                0x000000009d00583c                __pop_ptr_needed
                0x000000009d00583c                __pop_ptr

.text.CLK_Initialize
                0x000000009d005920       0xe0
 .text.CLK_Initialize
                0x000000009d005920       0xe0 build/default/production/_ext/60165520/plib_clk.o
                0x000000009d005920                CLK_Initialize

.text.general_exception
                0x000000009d005a00       0xdc
 .text.general_exception
                0x000000009d005a00       0xdc f:/microchip/xc32/v4.35/bin/bin/../../lib/gcc/pic32mx/8.3.1/../../../../pic32mx/lib/fpu64\libpic32.a(general-exception.o)
                0x000000009d005a00                _general_exception_context

.text._cache_err_exception_context
                0x000000009d005adc       0xd8
 .text._cache_err_exception_context
                0x000000009d005adc       0xd8 f:/microchip/xc32/v4.35/bin/bin/../../lib/gcc/pic32mx/8.3.1/../../../../pic32mx/lib/fpu64\libpic32.a(cache-err-exception.o)
                0x000000009d005adc                _cache_err_exception_context

.text.simple_tlb_refill_context
                0x000000009d005bb4       0xd8
 .text.simple_tlb_refill_context
                0x000000009d005bb4       0xd8 f:/microchip/xc32/v4.35/bin/bin/../../lib/gcc/pic32mx/8.3.1/../../../../pic32mx/lib/fpu64\libpic32.a(simple-tlb-refill-exception.o)
                0x000000009d005bb4                _simple_tlb_refill_exception_context

.text.UART2_Read
                0x000000009d005c8c       0xd4
 .text.UART2_Read
                0x000000009d005c8c       0xd4 build/default/production/_ext/1865657120/plib_uart2.o
                0x000000009d005c8c                UART2_Read

.rodata         0x000000009d005d60       0xd0
 .rodata        0x000000009d005d60       0xd0 build/default/production/_ext/1360937237/main.o

.text.DMAC_Initialize
                0x000000009d005e30       0xc8
 .text.DMAC_Initialize
                0x000000009d005e30       0xc8 build/default/production/_ext/1865161661/plib_dmac.o
                0x000000009d005e30                DMAC_Initialize

.text.BME280Sensor_Initialize
                0x000000009d005ef8       0xc0
 .text.BME280Sensor_Initialize
                0x000000009d005ef8       0xc0 build/default/production/_ext/1360937237/main.o
                0x000000009d005ef8                BME280Sensor_Initialize

.text.EVIC_Initialize
                0x000000009d005fb8       0xbc
 .text.EVIC_Initialize
                0x000000009d005fb8       0xbc build/default/production/_ext/1865200349/plib_evic.o
                0x000000009d005fb8                EVIC_Initialize

.tlb.__pic32_tlb_init_ebi_sqi
                0x000000009d006074       0xbc
 .tlb.__pic32_tlb_init_ebi_sqi
                0x000000009d006074       0xbc f:/microchip/xc32/v4.35/bin/bin/../../lib/gcc/pic32mx/8.3.1/../../../../pic32mx/lib/fpu64\libpic32.a(pic32_init_tlb_ebi_sqi.o)
                0x000000009d006074                __pic32_tlb_init_ebi_sqi

.text.SYS_Initialize
                0x000000009d006130       0xb4
 .text.SYS_Initialize
                0x000000009d006130       0xb4 build/default/production/_ext/1171490990/initialization.o
                0x000000009d006130                SYS_Initialize

.text.UART2_FAULT_InterruptHandler
                0x000000009d0061e4       0xac
 .text.UART2_FAULT_InterruptHandler
                0x000000009d0061e4       0xac build/default/production/_ext/1865657120/plib_uart2.o
                0x000000009d0061e4                UART2_FAULT_InterruptHandler

.text.UART2_ErrorClear
                0x000000009d006290       0xa8
 .text.UART2_ErrorClear
                0x000000009d006290       0xa8 build/default/production/_ext/1865657120/plib_uart2.o

.text.I2C1_Initialize
                0x000000009d006338       0xa0
 .text.I2C1_Initialize
                0x000000009d006338       0xa0 build/default/production/_ext/513455433/plib_i2c1_master.o
                0x000000009d006338                I2C1_Initialize

.text.I2C1_BUS_InterruptHandler
                0x000000009d0063d8       0xa0
 .text.I2C1_BUS_InterruptHandler
                0x000000009d0063d8       0xa0 build/default/production/_ext/513455433/plib_i2c1_master.o
                0x000000009d0063d8                I2C1_BUS_InterruptHandler

.text.BME280Sensor_WriteReg
                0x000000009d006478       0x90
 .text.BME280Sensor_WriteReg
                0x000000009d006478       0x90 build/default/production/_ext/1360937237/main.o

.text.BME280Sensor_Read
                0x000000009d006508       0x90
 .text.BME280Sensor_Read
                0x000000009d006508       0x90 build/default/production/_ext/1360937237/main.o

.text.BME280Sensor_ReadReg
                0x000000009d006598       0x8c
 .text.BME280Sensor_ReadReg
                0x000000009d006598       0x8c build/default/production/_ext/1360937237/main.o

.text.CORETIMER_DelayMs
                0x000000009d006624       0x88
 .text.CORETIMER_DelayMs
                0x000000009d006624       0x88 build/default/production/_ext/1249264884/plib_coretimer.o
                0x000000009d006624                CORETIMER_DelayMs

.text.BME280_PowerMode_Set
                0x000000009d0066ac       0x84
 .text.BME280_PowerMode_Set
                0x000000009d0066ac       0x84 build/default/production/_ext/1360937237/bme280_driver.o
                0x000000009d0066ac                BME280_PowerMode_Set

.text.__vsnprintf
                0x000000009d006730       0x80
 .text.__vsnprintf
                0x000000009d006730       0x80 f:/microchip/xc32/v4.35/bin/bin/../../lib/gcc/pic32mx/8.3.1/../../../../pic32mx/lib/fpu64\libc-musl.a(__int_vsnprintf.o)
                0x000000009d006730                __vsnprintf

.text           0x000000009d0067b0       0x7c
 .text          0x000000009d0067b0       0x7c f:/microchip/xc32/v4.35/bin/bin/../../lib/gcc/pic32mx/8.3.1/../../../../pic32mx/lib/fpu64\libpic32.a(pic32_data_init_core.o)
                0x000000009d0067b0                __dinit_copy_val_data
                0x000000009d0067b0                __dinit_decompress
                0x000000009d0067b0                __dinit_copy_emb
                0x000000009d0067b8                __pic32_data_init

.text.atoi      0x000000009d00682c       0x7c
 .text.atoi     0x000000009d00682c       0x7c f:/microchip/xc32/v4.35/bin/bin/../../lib/gcc/pic32mx/8.3.1/../../../../pic32mx/lib/fpu64\libc-musl.a(atoi.o)
                0x000000009d00682c                atoi

.text.TIMER_2_InterruptHandler
                0x000000009d0068a8       0x78
 .text.TIMER_2_InterruptHandler
                0x000000009d0068a8       0x78 build/default/production/_ext/60181895/plib_tmr2.o
                0x000000009d0068a8                TIMER_2_InterruptHandler

.text.DMAC_ChannelCallbackRegister
                0x000000009d000110       0x68
 .text.DMAC_ChannelCallbackRegister
                0x000000009d000110       0x68 build/default/production/_ext/1865161661/plib_dmac.o
                0x000000009d000110                DMAC_ChannelCallbackRegister

.text.I2C1_CallbackRegister
                0x000000009d000190       0x5c
 .text.I2C1_CallbackRegister
                0x000000009d000190       0x5c build/default/production/_ext/513455433/plib_i2c1_master.o
                0x000000009d000190                I2C1_CallbackRegister

.text.__string_out
                0x000000009d006920       0x5c
 .text.__string_out
                0x000000009d006920       0x5c f:/microchip/xc32/v4.35/bin/bin/../../lib/gcc/pic32mx/8.3.1/../../../../pic32mx/lib/fpu64\libc-musl.a(__printf_core.o)
                0x000000009d006920                __out

.text.TMR2_Initialize
                0x000000009d00697c       0x58
 .text.TMR2_Initialize
                0x000000009d00697c       0x58 build/default/production/_ext/60181895/plib_tmr2.o
                0x000000009d00697c                TMR2_Initialize

.text.__fmt_state
                0x000000009d0069d4       0x58
 .text.__fmt_state
                0x000000009d0069d4       0x58 f:/microchip/xc32/v4.35/bin/bin/../../lib/gcc/pic32mx/8.3.1/../../../../pic32mx/lib/fpu64\libc-musl.a(__printf_core.o)
                0x000000009d0069d4                __fmt_state

.text.CORETIMER_Initialize
                0x000000009d006a2c       0x54
 .text.CORETIMER_Initialize
                0x000000009d006a2c       0x54 build/default/production/_ext/1249264884/plib_coretimer.o
                0x000000009d006a2c                CORETIMER_Initialize

.text.main_entry
                0x000000009d006a80       0x54
 .text.main_entry
                0x000000009d006a80       0x54 C:\Users\huope\AppData\Local\Temp\cc8UKOfV.o
                0x000000009d006ab4                __crt0_exit

.text.UART2_ReadCallbackRegister
                0x000000009d006ad4       0x4c
 .text.UART2_ReadCallbackRegister
                0x000000009d006ad4       0x4c build/default/production/_ext/1865657120/plib_uart2.o
                0x000000009d006ad4                UART2_ReadCallbackRegister

.text.S1_User_Handler
                0x000000009d006b20       0x4c
 .text.S1_User_Handler
                0x000000009d006b20       0x4c build/default/production/_ext/1360937237/main.o

.text.I2CBufferEventHandler
                0x000000009d006b6c       0x4c
 .text.I2CBufferEventHandler
                0x000000009d006b6c       0x4c build/default/production/_ext/1360937237/main.o

.text.UARTBufferEventHandler
                0x000000009d006bb8       0x48
 .text.UARTBufferEventHandler
                0x000000009d006bb8       0x48 build/default/production/_ext/1360937237/main.o

.text.BME280_SoftReset
                0x000000009d006c00       0x48
 .text.BME280_SoftReset
                0x000000009d006c00       0x48 build/default/production/_ext/1360937237/bme280_driver.o
                0x000000009d006c00                BME280_SoftReset

.text.__pop_float
                0x000000009d006c48       0x48
 .text.__pop_float
                0x000000009d006c48       0x48 f:/microchip/xc32/v4.35/bin/bin/../../lib/gcc/pic32mx/8.3.1/../../../../pic32mx/lib/fpu64\libc-musl.a(__pop_float.o)
                0x000000009d006c48                __pop_float_needed
                0x000000009d006c48                __pop_float

.text.UARTDmaChannelHandler
                0x000000009d006c90       0x44
 .text.UARTDmaChannelHandler
                0x000000009d006c90       0x44 build/default/production/_ext/1360937237/main.o

.text.BME280_RegisterDrvReadReg
                0x000000009d006cd4       0x44
 .text.BME280_RegisterDrvReadReg
                0x000000009d006cd4       0x44 build/default/production/_ext/1360937237/bme280_driver.o
                0x000000009d006cd4                BME280_RegisterDrvReadReg

.text.BME280_RegisterDrvWriteReg
                0x000000009d006d18       0x44
 .text.BME280_RegisterDrvWriteReg
                0x000000009d006d18       0x44 build/default/production/_ext/1360937237/bme280_driver.o
                0x000000009d006d18                BME280_RegisterDrvWriteReg

.text.BME280_RegisterDrvRead
                0x000000009d006d5c       0x44
 .text.BME280_RegisterDrvRead
                0x000000009d006d5c       0x44 build/default/production/_ext/1360937237/bme280_driver.o
                0x000000009d006d5c                BME280_RegisterDrvRead

.text           0x000000009d006da0       0x44
 .text          0x000000009d006da0       0x44 f:/microchip/xc32/v4.35/bin/bin/../../lib/gcc/pic32mx/8.3.1/../../../../pic32mx/lib/fpu64\pic32_software_reset.o
                0x000000009d006da0                __pic32_software_reset

.text.I2C1_ErrorGet
                0x000000009d006de4       0x40
 .text.I2C1_ErrorGet
                0x000000009d006de4       0x40 build/default/production/_ext/513455433/plib_i2c1_master.o
                0x000000009d006de4                I2C1_ErrorGet

.text.UART2_ErrorGet
                0x000000009d006e24       0x40
 .text.UART2_ErrorGet
                0x000000009d006e24       0x40 build/default/production/_ext/1865657120/plib_uart2.o
                0x000000009d006e24                UART2_ErrorGet

.text.BME280_ID_Get
                0x000000009d006e64       0x40
 .text.BME280_ID_Get
                0x000000009d006e64       0x40 build/default/production/_ext/1360937237/bme280_driver.o
                0x000000009d006e64                BME280_ID_Get

.text.TMR2_CallbackRegister
                0x000000009d006ea4       0x3c
 .text.TMR2_CallbackRegister
                0x000000009d006ea4       0x3c build/default/production/_ext/60181895/plib_tmr2.o
                0x000000009d006ea4                TMR2_CallbackRegister

.text.__vfprintf
                0x000000009d006ee0       0x3c
 .text.__vfprintf
                0x000000009d006ee0       0x3c f:/microchip/xc32/v4.35/bin/bin/../../lib/gcc/pic32mx/8.3.1/../../../../pic32mx/lib/fpu64\libc-musl.a(__int_vfprintf.o)
                0x000000009d006ee0                __vfprintf

.text.TMR2_PeriodSet
                0x000000009d006f1c       0x38
 .text.TMR2_PeriodSet
                0x000000009d006f1c       0x38 build/default/production/_ext/60181895/plib_tmr2.o
                0x000000009d006f1c                TMR2_PeriodSet

.text.I2C1_MASTER_InterruptHandler
                0x000000009d006f54       0x34
 .text.I2C1_MASTER_InterruptHandler
                0x000000009d006f54       0x34 build/default/production/_ext/513455433/plib_i2c1_master.o
                0x000000009d006f54                I2C1_MASTER_InterruptHandler

.text.tmr1EventHandler
                0x000000009d006f88       0x34
 .text.tmr1EventHandler
                0x000000009d006f88       0x34 build/default/production/_ext/1360937237/main.o

.text.BME280_GetTempReading
                0x000000009d006fbc       0x34
 .text.BME280_GetTempReading
                0x000000009d006fbc       0x34 build/default/production/_ext/1360937237/bme280_driver.o
                0x000000009d006fbc                BME280_GetTempReading

.text.TMR2_Start
                0x000000009d006ff0       0x30
 .text.TMR2_Start
                0x000000009d006ff0       0x30 build/default/production/_ext/60181895/plib_tmr2.o
                0x000000009d006ff0                TMR2_Start

.text.TMR2_Stop
                0x000000009d007020       0x30
 .text.TMR2_Stop
                0x000000009d007020       0x30 build/default/production/_ext/60181895/plib_tmr2.o
                0x000000009d007020                TMR2_Stop

.text._general_exception_handler
                0x000000009d007050       0x30
 .text._general_exception_handler
                0x000000009d007050       0x30 build/default/production/_ext/1171490990/exceptions.o
                0x000000009d007050                _general_exception_handler

.text._bootstrap_exception_handler
                0x000000009d007080       0x30
 .text._bootstrap_exception_handler
                0x000000009d007080       0x30 build/default/production/_ext/1171490990/exceptions.o
                0x000000009d007080                _bootstrap_exception_handler

.text._cache_err_exception_handler
                0x000000009d0070b0       0x30
 .text._cache_err_exception_handler
                0x000000009d0070b0       0x30 build/default/production/_ext/1171490990/exceptions.o
                0x000000009d0070b0                _cache_err_exception_handler

.text._simple_tlb_refill_exception_handler
                0x000000009d0070e0       0x30
 .text._simple_tlb_refill_exception_handler
                0x000000009d0070e0       0x30 build/default/production/_ext/1171490990/exceptions.o
                0x000000009d0070e0                _simple_tlb_refill_exception_handler

.text.memcpy    0x000000009d007110       0x2c
 .text.memcpy   0x000000009d007110       0x2c f:/microchip/xc32/v4.35/bin/bin/../../lib/gcc/pic32mx/8.3.1/../../../../pic32mx/lib/fpu64\libc-musl.a(memcpy.o)
                0x000000009d007110                memcpy

.text.__wrap_sprintf
                0x000000009d00713c       0x28
 .text.__wrap_sprintf
                0x000000009d00713c       0x28 f:/microchip/xc32/v4.35/bin/bin/../../lib/gcc/pic32mx/8.3.1/../../../../pic32mx/lib/fpu64\libc-musl.a(__sio_sprintf_dn.o)
                0x000000009d00713c                _sprintf_dn
                0x000000009d00713c                _dsprintf_dn

.text.memset    0x000000009d007164       0x28
 .text.memset   0x000000009d007164       0x28 f:/microchip/xc32/v4.35/bin/bin/../../lib/gcc/pic32mx/8.3.1/../../../../pic32mx/lib/fpu64\libc-musl.a(memset.o)
                0x000000009d007164                memset

.text.__vsprintf
                0x000000009d00718c       0x28
 .text.__vsprintf
                0x000000009d00718c       0x28 f:/microchip/xc32/v4.35/bin/bin/../../lib/gcc/pic32mx/8.3.1/../../../../pic32mx/lib/fpu64\libc-musl.a(__int_vsprintf.o)
                0x000000009d00718c                __vsprintf

.text           0x000000009d0071b4       0x20
 .text          0x000000009d0071b4       0x20 f:/microchip/xc32/v4.35/bin/bin/../../lib/gcc/pic32mx/8.3.1/../../../../pic32mx/lib/fpu64\libpic32.a(pic32_data_init_copy.o)
                0x000000009d0071b4                __dinit_copy
                0x000000009d0071b4                __dinit_copy_needed

.text.tolower   0x000000009d0071d4       0x1c
 .text.tolower  0x000000009d0071d4       0x1c f:/microchip/xc32/v4.35/bin/bin/../../lib/gcc/pic32mx/8.3.1/../../../../pic32mx/lib/fpu64\libc-musl.a(tolower.o)
                0x000000009d0071d4                tolower

.MIPS.abiflags  0x000000009d0071f0       0x18
 .MIPS.abiflags
                0x000000009d0071f0       0x18 f:/microchip/xc32/v4.35/bin/bin/../../lib/gcc/pic32mx/8.3.1/../../../../pic32mx/lib/fpu64\debug-exception-return.o

.text           0x000000009d007208       0x18
 .text          0x000000009d007208       0x18 f:/microchip/xc32/v4.35/bin/bin/../../lib/gcc/pic32mx/8.3.1/../../../../pic32mx/lib/fpu64\libpic32.a(default-nmi-handler.o)
                0x000000009d007208                _nmi_handler

.rodata         0x000000009d007220       0x18
 .rodata        0x000000009d007220       0x18 f:/microchip/xc32/v4.35/bin/bin/../../lib/gcc/pic32mx/8.3.1/../../../../pic32mx/lib/fpu64\libc-musl.a(__printf_core.o)

.text           0x000000009d007238       0x18
 .text          0x000000009d007238       0x18 f:/microchip/xc32/v4.35/bin/bin/../../lib/gcc/pic32mx/8.3.1/../../../../pic32mx/lib/fpu64\libpic32.a(pic32_data_init_clear.o)
                0x000000009d007238                __dinit_clear_needed
                0x000000009d007238                __dinit_clear

.rodata         0x000000009d0001ec       0x14
 .rodata        0x000000009d0001ec       0x14 f:/microchip/xc32/v4.35/bin/bin/../../lib/gcc/pic32mx/8.3.1/../../../../pic32mx/lib/fpu64\libpic32.a(pic32_data_init_core.o)

.rodata.str1.4  0x000000009d007250        0xc
 .rodata.str1.4
                0x000000009d007250        0xc f:/microchip/xc32/v4.35/bin/bin/../../lib/gcc/pic32mx/8.3.1/../../../../pic32mx/lib/fpu64\libc-musl.a(__printf_core.o)

.text._on_reset
                0x000000009d000178        0x8
 .text._on_reset
                0x000000009d000178        0x8 f:/microchip/xc32/v4.35/bin/bin/../../lib/gcc/pic32mx/8.3.1/../../../../pic32mx/lib/fpu64\libpic32.a(default-on-reset.o)
                0x000000009d000178                _on_reset

.text._on_bootstrap
                0x000000009d00725c        0x8
 .text._on_bootstrap
                0x000000009d00725c        0x8 f:/microchip/xc32/v4.35/bin/bin/../../lib/gcc/pic32mx/8.3.1/../../../../pic32mx/lib/fpu64\libpic32.a(default-on-bootstrap.o)
                0x000000009d00725c                _on_bootstrap

.text.__dummy_fmt3
                0x000000009d007264        0x8
 .text.__dummy_fmt3
                0x000000009d007264        0x8 f:/microchip/xc32/v4.35/bin/bin/../../lib/gcc/pic32mx/8.3.1/../../../../pic32mx/lib/fpu64\libc-musl.a(__printf_core.o)
                0x000000009d007264                __fmt_u
                0x000000009d007264                __fmt_o

.text.__dummy_fmt4
                0x000000009d00726c        0x8
 .text.__dummy_fmt4
                0x000000009d00726c        0x8 f:/microchip/xc32/v4.35/bin/bin/../../lib/gcc/pic32mx/8.3.1/../../../../pic32mx/lib/fpu64\libc-musl.a(__printf_core.o)
                0x000000009d00726c                __fmt_x
                0x000000009d00726c                __fmt_fp
                0x000000009d00726c                __fmt_a

.text.__dummy_fmts
                0x000000009d007274        0x8
 .text.__dummy_fmts
                0x000000009d007274        0x8 f:/microchip/xc32/v4.35/bin/bin/../../lib/gcc/pic32mx/8.3.1/../../../../pic32mx/lib/fpu64\libc-musl.a(__printf_core.o)
                0x000000009d007274                __fmt_s
